(imcz
MCZ
p0
(dp1
S'exp_data'
p2
NsS'cmd'
p3
S'Rscript mcz.R /home/netinf/NetInfJacGithubOct1714/Network-Inference-Workspace/output//MCZ-BOOKFINAL-dream410-2014-10-17_15.16.56//MCZ//data//insilico_size10_1_wildtype.tsv /home/netinf/NetInfJacGithubOct1714/Network-Inference-Workspace/output//MCZ-BOOKFINAL-dream410-2014-10-17_15.16.56//MCZ//data//insilico_size10_1_knockouts.tsv /home/netinf/NetInfJacGithubOct1714/Network-Inference-Workspace/output//MCZ-BOOKFINAL-dream410-2014-10-17_15.16.56//MCZ//data//insilico_size10_1_knockdowns.tsv /home/netinf/NetInfJacGithubOct1714/Network-Inference-Workspace/output//MCZ-BOOKFINAL-dream410-2014-10-17_15.16.56//MCZ//data//TimeZeros.tsv'
p4
sS'data_dir'
p5
S'/home/netinf/NetInfJacGithubOct1714/Network-Inference-Workspace/output//MCZ-BOOKFINAL-dream410-2014-10-17_15.16.56//MCZ//data/'
p6
sS'name'
p7
S'MCZ'
p8
sS'ko_storage'
p9
(iDataStore
MicroarrayData
p10
(dp11
S'experiments'
p12
(lp13
(iDataStore
Experiment
p14
(dp15
S'ratios'
p16
(dp17
S'G7'
p18
F0.8300751
sS'G6'
p19
F0.375175
sS'G5'
p20
F0.8043362
sS'G4'
p21
F0.362374
sS'G3'
p22
F0.2643345
sS'G2'
p23
F0.3726836
sS'G1'
p24
F0.0
sS'G9'
p25
F0.6211513
sS'G8'
p26
F0.7745205
sS'G10'
p27
F0.7196954
ssS'type'
p28
S'knockout'
p29
sS'tfs'
p30
(lp31
sg7
S'0'
p32
sS'file'
p33
S'datasets/DREAM4_InSilico_Size10/insilico_size10_1/insilico_size10_1_knockouts.tsv'
p34
sba(iDataStore
Experiment
p35
(dp36
g16
(dp37
g18
F0.5208251
sg19
F0.3396784
sg20
F0.151023
sg21
F0.600287
sg22
F0.3771581
sg23
F0.0
sg24
F0.7331094
sg25
F0.7350115
sg26
F0.6787224
sg27
F0.7922641
ssg28
g29
sg30
g31
sg7
S'1'
p38
sg33
g34
sba(iDataStore
Experiment
p39
(dp40
g16
(dp41
g18
F0.6641803
sg19
F0.4025691
sg20
F0.0791767
sg21
F0.3730533
sg22
F0.0
sg23
F0.1391272
sg24
F0.7070529
sg25
F0.7220312
sg26
F0.8045297
sg27
F0.6658928
ssg28
g29
sg30
g31
sg7
S'2'
p42
sg33
g34
sba(iDataStore
Experiment
p43
(dp44
g16
(dp45
g18
F0.1099868
sg19
F0.2836348
sg20
F0.1489169
sg21
F0.0
sg22
F0.6167796
sg23
F0.1071007
sg24
F0.8450825
sg25
F0.5874284
sg26
F0.6342242
sg27
F0.7160394
ssg28
g29
sg30
g31
sg7
S'3'
p46
sg33
g34
sba(iDataStore
Experiment
p47
(dp48
g16
(dp49
g18
F0.5416993
sg19
F0.3271487
sg20
F0.0
sg21
F0.5616994
sg22
F0.4261411
sg23
F0.1364529
sg24
F0.8780137
sg25
F0.7343038
sg26
F0.5681723
sg27
F0.7933364
ssg28
g29
sg30
g31
sg7
S'4'
p50
sg33
g34
sba(iDataStore
Experiment
p51
(dp52
g16
(dp53
g18
F0.4606635
sg19
F0.0
sg20
F0.0947163
sg21
F0.62728
sg22
F0.4614097
sg23
F0.3975987
sg24
F0.6164494
sg25
F0.7374282
sg26
F0.5924707
sg27
F0.7962721
ssg28
g29
sg30
g31
sg7
S'5'
p54
sg33
g34
sba(iDataStore
Experiment
p55
(dp56
g16
(dp57
g18
F0.0
sg19
F0.3024242
sg20
F0.0843933
sg21
F0.2712395
sg22
F0.3150332
sg23
F0.0855962
sg24
F0.6906661
sg25
F0.804104
sg26
F0.7503346
sg27
F0.6355293
ssg28
g29
sg30
g31
sg7
S'6'
p58
sg33
g34
sba(iDataStore
Experiment
p59
(dp60
g16
(dp61
g18
F0.5464286
sg19
F0.6322827
sg20
F0.1194226
sg21
F0.6637898
sg22
F0.3753798
sg23
F0.2786197
sg24
F0.7996258
sg25
F0.7722994
sg26
F0.0
sg27
F0.6917469
ssg28
g29
sg30
g31
sg7
S'7'
p62
sg33
g34
sba(iDataStore
Experiment
p63
(dp64
g16
(dp65
g18
F0.6929004
sg19
F0.2983418
sg20
F0.1357722
sg21
F0.3983948
sg22
F0.2351013
sg23
F0.122301
sg24
F0.7928387
sg25
F0.0
sg26
F0.7674369
sg27
F0.0362879
ssg28
g29
sg30
g31
sg7
S'8'
p66
sg33
g34
sba(iDataStore
Experiment
p67
(dp68
g16
(dp69
g18
F0.6154742
sg19
F0.33971
sg20
F0.1241278
sg21
F0.3636434
sg22
F0.4215866
sg23
F0.1399857
sg24
F0.7939821
sg25
F0.7247379
sg26
F0.677609
sg27
F0.0
ssg28
g29
sg30
g31
sg7
S'9'
p70
sg33
g34
sbasg28
g29
sS'timeseries_num'
p71
NsS'gene_list'
p72
(lp73
g24
ag23
ag22
ag21
ag20
ag19
ag18
ag26
ag25
ag27
asS'input_files'
p74
(lp75
S'insilico_size10_1_knockouts.tsv'
p76
asbsS'settings'
p77
(dp78
S'inferelator'
p79
(dp80
S'datafiles'
p81
S'data/waffles.txt data/testing.txt'
p82
sS'config'
p83
S'config/tlclr_testing.cfg'
p84
ssS'genie3'
p85
(dp86
S'config'
p87
S'config/genie3_testing.cfg'
p88
ssS'inferelator-pipeline'
p89
(dp90
S'config'
p91
S'config/inferelator-pipeline.cfg'
p92
ssS'cmonkey'
p93
(dp94
S'config'
p95
S'config/cmonkey_testing.cfg'
p96
ssS'tlclr'
p97
(dp98
S'config'
p99
S'config/tlclr_testing.cfg'
p100
ssS'global'
p101
(dp102
S'medium2_network_goldnet_file'
p103
S'datasets/20Gene_Network2/Ecoli-20Genes-6Reg-3_goldstandard.tsv'
p104
sS'dream410_3_network_wildtype_file'
p105
S'datasets/DREAM4_InSilico_Size10/insilico_size10_3/insilico_size10_3_wildtype.tsv'
p106
sS'dream4100_5_network_knockdown_file'
p107
S'datasets/DREAM4_InSilico_Size100/insilico_size100_5/insilico_size100_5_knockdowns.tsv'
p108
sS'dream410_network_wildtype_file'
p109
S'datasets/DREAM4_InSilico_Size10/insilico_size10_1/insilico_size10_1_wildtype.tsv'
p110
sS'medium2_network_delta_t'
p111
I50
sS'dream4100_2_network_timeseries_file'
p112
S'datasets/DREAM4_InSilico_Size100/insilico_size100_2/insilico_size100_2_timeseries.tsv'
p113
sS'medium_network_wildtype_file'
p114
S'datasets/20Gene_Network/Ecoli-20Genes-6Reg-2_wildtype.tsv'
p115
sS'dream4100_network_goldnet_file'
p116
S'datasets/DREAM4_InSilico_Size100/insilico_size100_1/DREAM4_GoldStandard_InSilico_Size100_1.tsv'
p117
sS'dream4100_4_network_multifactorial_file'
p118
S'datasets/DREAM4_InSilico_Size100/insilico_size100_4/insilico_size100_4_multifactorial.tsv'
p119
sS'large_network_knockout_file'
p120
S'datasets/Large_Network/Ecoli-1_knockouts.tsv'
p121
sS'ecoli400_timeseries_file'
p122
S'datasets/Ecoli-400/Ecoli-400-1_dream4_timeseries.tsv'
p123
sS'small_network_multifactorial_file'
p124
S'datasets/Small_Network/Ecoli-1_multifactorial.tsv'
p125
sS'dream410_4_network_knockdown_file'
p126
S'datasets/DREAM4_InSilico_Size10/insilico_size10_4/insilico_size10_4_knockdowns.tsv'
p127
sS'dream410_5_network_wildtype_file'
p128
S'datasets/DREAM4_InSilico_Size10/insilico_size10_5/insilico_size10_5_wildtype.tsv'
p129
sS'dream4100_network_delta_t'
p130
I50
sS'dream4100_1000tp_network_knockout_file'
p131
S'datasets/DREAM4_100_1000TP/insilico_size100_1_knockouts.tsv'
p132
sS'tflist'
p133
S'ArabGeneTFNames.csv'
p134
sS'large_network_knockdown_file'
p135
S'datasets/Large_Network/Ecoli-1_knockdowns.tsv'
p136
sS'dream410_4_network_wildtype_file'
p137
S'datasets/DREAM4_InSilico_Size10/insilico_size10_4/insilico_size10_4_wildtype.tsv'
p138
sS'medium_network_multifactorial_file'
p139
S'datasets/20Gene_Network/Ecoli-20Genes-6Reg-2_multifactorial.tsv'
p140
sS'dream410_5_network_knockdown_file'
p141
S'datasets/DREAM4_InSilico_Size10/insilico_size10_5/insilico_size10_5_knockdowns.tsv'
p142
sS'dream410_5_network_goldnet_file'
p143
S'datasets/DREAM4_InSilico_Size10/insilico_size10_5/DREAM4_GoldStandard_InSilico_Size10_5.tsv'
p144
sS'dream410_2_network_knockdown_file'
p145
S'datasets/DREAM4_InSilico_Size10/insilico_size10_2/insilico_size10_2_knockdowns.tsv'
p146
sS'template_dir'
p147
S'config/templates/'
p148
sS'dream4100_1000tp_network_delta_t'
p149
I50
sS'dream4100_2_network_goldnet_file'
p150
S'datasets/DREAM4_InSilico_Size100/insilico_size100_2/DREAM4_GoldStandard_InSilico_Size100_2.tsv'
p151
sS'experiment_name'
p152
S'MCZ-BOOKFINAL-dream410'
p153
sS'dream410_4_network_multifactorial_file'
p154
S'datasets/DREAM4_InSilico_Size10/insilico_size10_4/insilico_size10_4_multifactorial.tsv'
p155
sS'dream410_network_timeseries_file'
p156
S'datasets/DREAM4_InSilico_Size10/insilico_size10_1/insilico_size10_1_timeseries.tsv'
p157
sS'dream410_1000tp_network_wildtype_file'
p158
S'datasets/DREAM4_10_1000TP/insilico_size10_1_wildtype.tsv'
p159
sS'dream4100_1000tp_network_goldnet_file'
p160
S'datasets/DREAM4_InSilico_Size100/insilico_size100_1/DREAM4_GoldStandard_InSilico_Size100_1.tsv'
p161
sS'dream4100_network_knockdown_file'
p162
S'datasets/DREAM4_InSilico_Size100/insilico_size100_1/insilico_size100_1_knockdowns.tsv'
p163
sS'dream4100_network_wildtype_file'
p164
S'datasets/DREAM4_InSilico_Size100/insilico_size100_1/insilico_size100_1_wildtype.tsv'
p165
sS'dream4100_3_network_multifactorial_file'
p166
S'datasets/DREAM4_InSilico_Size100/insilico_size100_3/insilico_size100_3_multifactorial.tsv'
p167
sS'n_processors'
p168
I4
sS'dream4100_3_network_knockdown_file'
p169
S'datasets/DREAM4_InSilico_Size100/insilico_size100_3/insilico_size100_3_knockdowns.tsv'
p170
sS'medium2_network_timeseries_file'
p171
S'datasets/20Gene_Network2/Ecoli-20Genes-6Reg-3_dream4_timeseries.tsv'
p172
sS'dream410_4_network_delta_t'
p173
I50
sS'dream4100_5_network_delta_t'
p174
I50
sS'dream4100_5_network_multifactorial_file'
p175
S'datasets/DREAM4_InSilico_Size100/insilico_size100_5/insilico_size100_5_multifactorial.tsv'
p176
sS'dream410_1000tp_network_knockdown_file'
p177
S'datasets/DREAM4_10_1000TP/insilico_size10_1_knockdowns.tsv'
p178
sS'dream4100_network_knockout_file'
p179
S'datasets/DREAM4_InSilico_Size100/insilico_size100_1/insilico_size100_1_knockouts.tsv'
p180
sS'log_dir'
p181
S'output/logs/'
p182
sS'dream4100_4_network_wildtype_file'
p183
S'datasets/DREAM4_InSilico_Size100/insilico_size100_4/insilico_size100_4_wildtype.tsv'
p184
sS'dream4100_4_network_timeseries_file'
p185
S'datasets/DREAM4_InSilico_Size100/insilico_size100_4/insilico_size100_4_timeseries.tsv'
p186
sS'steady_state_files'
p187
S'550ath.ratios.fix'
p188
sS'medium_network_delta_t'
p189
I50
sS'ecoli400_wildtype_file'
p190
S'datasets/Ecoli-400/Ecoli-400-1_wildtype.tsv'
p191
sS'dream410_network_goldnet_file'
p192
S'datasets/DREAM4_InSilico_Size10/insilico_size10_1/DREAM4_GoldStandard_InSilico_Size10_1.tsv'
p193
sS'dream410_4_network_timeseries_file'
p194
S'datasets/DREAM4_InSilico_Size10/insilico_size10_4/insilico_size10_4_timeseries.tsv'
p195
sS'dream4100_3_network_timeseries_file'
p196
S'datasets/DREAM4_InSilico_Size100/insilico_size100_3/insilico_size100_3_timeseries.tsv'
p197
sS'large_network_delta_t'
p198
I30
sS'dream410_1000tp_network_knockout_file'
p199
S'datasets/DREAM4_10_1000TP/insilico_size10_1_knockouts.tsv'
p200
sS'medium2_network_wildtype_file'
p201
S'datasets/20Gene_Network2/Ecoli-20Genes-6Reg-3_wildtype.tsv'
p202
sS'dream4100_5_network_timeseries_file'
p203
S'datasets/DREAM4_InSilico_Size100/insilico_size100_5/insilico_size100_5_timeseries.tsv'
p204
sS'ecoli400_goldnet_file'
p205
S'datasets/Ecoli-400/Ecoli-400-1_goldstandard.tsv'
p206
sS'dream4100_network_multifactorial_file'
p207
S'datasets/DREAM4_InSilico_Size100/insilico_size100_1/insilico_size100_1_multifactorial.tsv'
p208
sS'dream410_2_network_wildtype_file'
p209
S'datasets/DREAM4_InSilico_Size10/insilico_size10_2/insilico_size10_2_wildtype.tsv'
p210
sS'dream410_5_network_timeseries_file'
p211
S'datasets/DREAM4_InSilico_Size10/insilico_size10_5/insilico_size10_5_timeseries.tsv'
p212
sS'small_network_knockdown_file'
p213
S'datasets/Small_Network/Ecoli-1_knockdowns.tsv'
p214
sS'dream410_network_knockout_file'
p215
g34
sS'dream410_3_network_goldnet_file'
p216
S'datasets/DREAM4_InSilico_Size10/insilico_size10_3/DREAM4_GoldStandard_InSilico_Size10_3.tsv'
p217
sS'medium_network_knockdown_file'
p218
S'datasets/20Gene_Network/Ecoli-20Genes-6Reg-2_knockdowns.tsv'
p219
sS'dream410_4_network_knockout_file'
p220
S'datasets/DREAM4_InSilico_Size10/insilico_size10_4/insilico_size10_4_knockouts.tsv'
p221
sS'dream4100_2_network_wildtype_file'
p222
S'datasets/DREAM4_InSilico_Size100/insilico_size100_2/insilico_size100_2_wildtype.tsv'
p223
sS'dream410_1000tp_network_timeseries_file'
p224
S'datasets/DREAM4_10_1000TP/insilico_size10_1_timeseries.tsv'
p225
sS'dream410_network_delta_t'
p226
I50
sS'ecoli400_knockout_file'
p227
S'datasets/Ecoli-400/Ecoli-400-1_knockouts.tsv'
p228
sS'dream4100_3_network_knockout_file'
p229
S'datasets/DREAM4_InSilico_Size100/insilico_size100_3/insilico_size100_3_knockouts.tsv'
p230
sS'dream4100_1000tp_network_multifactorial_file'
p231
S'datasets/DREAM4_100_1000TP/insilico_size100_1_multifactorial.tsv'
p232
sS'dream410_2_network_goldnet_file'
p233
S'datasets/DREAM4_InSilico_Size10/insilico_size10_2/DREAM4_GoldStandard_InSilico_Size10_2.tsv'
p234
sS'small_network_wildtype_file'
p235
S'datasets/Small_Network/Ecoli-1_wildtype.tsv'
p236
sS'dream4100_2_network_delta_t'
p237
I50
sS'medium_network_timeseries_file'
p238
S'datasets/20Gene_Network/Ecoli-20Genes-6Reg-2_dream4_timeseries.tsv'
p239
sS'dream410_5_network_knockout_file'
p240
S'datasets/DREAM4_InSilico_Size10/insilico_size10_5/insilico_size10_5_knockouts.tsv'
p241
sS'dream410_2_network_knockout_file'
p242
S'datasets/DREAM4_InSilico_Size10/insilico_size10_2/insilico_size10_2_knockouts.tsv'
p243
sS'dream410_2_network_timeseries_file'
p244
S'datasets/DREAM4_InSilico_Size10/insilico_size10_2/insilico_size10_2_timeseries.tsv'
p245
sS'dream4100_3_network_delta_t'
p246
I50
sS'use_cluster'
p247
S'False'
p248
sS'large_network_timeseries_file'
p249
S'datasets/Large_Network/Ecoli-1_dream4_timeseries.tsv'
p250
sS'dream410_3_network_knockdown_file'
p251
S'datasets/DREAM4_InSilico_Size10/insilico_size10_3/insilico_size10_3_knockdowns.tsv'
p252
sS'dream410_2_network_delta_t'
p253
I50
sS'medium2_network_knockout_file'
p254
S'datasets/20Gene_Network2/Ecoli-20Genes-6Reg-3_knockouts.tsv'
p255
sS'dream4100_3_network_wildtype_file'
p256
S'datasets/DREAM4_InSilico_Size100/insilico_size100_3/insilico_size100_3_wildtype.tsv'
p257
sS'dream410_3_network_timeseries_file'
p258
S'datasets/DREAM4_InSilico_Size10/insilico_size10_3/insilico_size10_3_timeseries.tsv'
p259
sS'small_network_goldnet_file'
p260
S'datasets/Small_Network/Ecoli-1_goldstandard.tsv'
p261
sS'small_network_delta_t'
p262
I30
sS'dream4100_5_network_wildtype_file'
p263
S'datasets/DREAM4_InSilico_Size100/insilico_size100_5/insilico_size100_5_wildtype.tsv'
p264
sS'dream410_3_network_knockout_file'
p265
S'datasets/DREAM4_InSilico_Size10/insilico_size10_3/insilico_size10_3_knockouts.tsv'
p266
sS'dream410_network_knockdown_file'
p267
S'datasets/DREAM4_InSilico_Size10/insilico_size10_1/insilico_size10_1_knockdowns.tsv'
p268
sS'dream410_3_network_delta_t'
p269
I50
sS'dream4100_network_timeseries_file'
p270
S'datasets/DREAM4_InSilico_Size100/insilico_size100_1/insilico_size100_1_timeseries.tsv'
p271
sS'dream4100_1000tp_network_wildtype_file'
p272
S'datasets/DREAM4_100_1000TP/insilico_size100_1_wildtype.tsv'
p273
sS'dream410_1000tp_network_goldnet_file'
p274
S'datasets/DREAM4_InSilico_Size10/insilico_size10_1/DREAM4_GoldStandard_InSilico_Size10_1.tsv'
p275
sS'large_network_multifactorial_file'
p276
S'datasets/Large_Network/Ecoli-1_multifactorial.tsv'
p277
sS'dream4100_1000tp_network_knockdown_file'
p278
S'datasets/DREAM4_100_1000TP/insilico_size100_1_knockdowns.tsv'
p279
sS'large_network_wildtype_file'
p280
S'datasets/Large_Network/Ecoli-1_wildtype.tsv'
p281
sS'ecoli400_multifactorial_file'
p282
S'datasets/Ecoli-400/Ecoli-400-1_multifactorial.tsv'
p283
sS'dream410_network_multifactorial_file'
p284
S'datasets/DREAM4_InSilico_Size10/insilico_size10_1/insilico_size10_1_multifactorial.tsv'
p285
sS'small_network_knockout_file'
p286
S'datasets/Small_Network/Ecoli-1_knockouts.tsv'
p287
sS'dream4100_4_network_knockout_file'
p288
S'datasets/DREAM4_InSilico_Size100/insilico_size100_4/insilico_size100_4_knockouts.tsv'
p289
sS'matlab_path'
p290
S'matlab -nodesktop -nodisplay -nosplash -r'
p291
sS'dream410_4_network_goldnet_file'
p292
S'datasets/DREAM4_InSilico_Size10/insilico_size10_4/DREAM4_GoldStandard_InSilico_Size10_4.tsv'
p293
sS'dream4100_2_network_multifactorial_file'
p294
S'datasets/DREAM4_InSilico_Size100/insilico_size100_2/insilico_size100_2_multifactorial.tsv'
p295
sS'ecoli400_knockdown_file'
p296
S'datasets/Ecoli-400/Ecoli-400-1_knockdowns.tsv'
p297
sS'dream4100_3_network_goldnet_file'
p298
S'datasets/DREAM4_InSilico_Size100/insilico_size100_3/DREAM4_GoldStandard_InSilico_Size100_3.tsv'
p299
sS'time_series_delta_t'
p300
I50
sS'dream4100_1000tp_network_timeseries_file'
p301
S'datasets/DREAM4_100_1000TP/insilico_size100_1_timeseries.tsv'
p302
sS'medium_network_goldnet_file'
p303
S'datasets/20Gene_Network/Ecoli-20Genes-6Reg-2_goldstandard.tsv'
p304
sS'dream4100_4_network_goldnet_file'
p305
S'datasets/DREAM4_InSilico_Size100/insilico_size100_4/DREAM4_GoldStandard_InSilico_Size100_4.tsv'
p306
sS'large_network_goldnet_file'
p307
S'datasets/Large_Network/Ecoli-1_goldstandard.tsv'
p308
sS'working_dir'
p309
S'/home/netinf/NetInfJacGithubOct1714/Network-Inference-Workspace/'
p310
sS'output_dir'
p311
S'output//MCZ-BOOKFINAL-dream410-2014-10-17_15.16.56/'
p312
sS'medium2_network_knockdown_file'
p313
S'datasets/20Gene_Network2/Ecoli-20Genes-6Reg-3_knockdowns.tsv'
p314
sS'time_series_files'
p315
S'datasets/dream4_10/dream4_ts.tsv'
p316
sS'dream4100_5_network_knockout_file'
p317
S'datasets/DREAM4_InSilico_Size100/insilico_size100_5/insilico_size100_5_knockouts.tsv'
p318
sS'dream410_3_network_multifactorial_file'
p319
S'datasets/DREAM4_InSilico_Size10/insilico_size10_3/insilico_size10_3_multifactorial.tsv'
p320
sS'dream4100_2_network_knockout_file'
p321
S'datasets/DREAM4_InSilico_Size100/insilico_size100_2/insilico_size100_2_knockouts.tsv'
p322
sS'dream410_1000tp_network_multifactorial_file'
p323
S'datasets/DREAM4_10_1000TP/insilico_size10_1_multifactorial.tsv'
p324
sS'dream410_5_network_delta_t'
p325
I50
sS'dream4100_5_network_goldnet_file'
p326
S'datasets/DREAM4_InSilico_Size100/insilico_size100_5/DREAM4_GoldStandard_InSilico_Size100_5.tsv'
p327
sS'small_network_timeseries_file'
p328
S'datasets/Small_Network/Ecoli-1_dream4_timeseries.tsv'
p329
sS'dream410_2_network_multifactorial_file'
p330
S'datasets/DREAM4_InSilico_Size10/insilico_size10_2/insilico_size10_2_multifactorial.tsv'
p331
sS'dream4100_4_network_knockdown_file'
p332
S'datasets/DREAM4_InSilico_Size100/insilico_size100_4/insilico_size100_4_knockdowns.tsv'
p333
sS'medium_network_knockout_file'
p334
S'datasets/20Gene_Network/Ecoli-20Genes-6Reg-2_knockouts.tsv'
p335
sS'ecoli400_delta_t'
p336
I50
sS'medium2_network_multifactorial_file'
p337
S'datasets/20Gene_Network2/Ecoli-20Genes-6Reg-3_multifactorial.tsv'
p338
sS'dream4100_2_network_knockdown_file'
p339
S'datasets/DREAM4_InSilico_Size100/insilico_size100_2/insilico_size100_2_knockdowns.tsv'
p340
sS'dream4100_4_network_delta_t'
p341
I50
sS'dream410_1000tp_network_delta_t'
p342
I50
sS'dream410_5_network_multifactorial_file'
p343
S'datasets/DREAM4_InSilico_Size10/insilico_size10_5/insilico_size10_5_multifactorial.tsv'
p344
ssS'mcz'
p345
(dp346
g5
g6
sg7
g8
sg29
S'/home/netinf/NetInfJacGithubOct1714/Network-Inference-Workspace/output//MCZ-BOOKFINAL-dream410-2014-10-17_15.16.56//MCZ//data//insilico_size10_1_knockouts.tsv'
p347
sS'working_dir_config'
p348
S'/home/netinf/NetInfJacGithubOct1714/Network-Inference-Workspace/output//MCZ-BOOKFINAL-dream410-2014-10-17_15.16.56//MCZ//mcz_program/mcz_config.cfg'
p349
sS'tzero'
p350
S'/home/netinf/NetInfJacGithubOct1714/Network-Inference-Workspace/output//MCZ-BOOKFINAL-dream410-2014-10-17_15.16.56//MCZ//data//TimeZeros.tsv'
p351
sS'other'
p352
S'/home/netinf/NetInfJacGithubOct1714/Network-Inference-Workspace/output//MCZ-BOOKFINAL-dream410-2014-10-17_15.16.56//MCZ//data//insilico_size10_1_knockdowns.tsv'
p353
sS'output_dir'
p354
S'/home/netinf/NetInfJacGithubOct1714/Network-Inference-Workspace/output//MCZ-BOOKFINAL-dream410-2014-10-17_15.16.56//MCZ/'
p355
sS'path'
p356
S'algorithms/mcz/'
p357
sS'file_ext'
p358
S'py'
p359
sS'config'
p360
S'config/mcz_testing.cfg'
p361
sS'wildtype'
p362
S'/home/netinf/NetInfJacGithubOct1714/Network-Inference-Workspace/output//MCZ-BOOKFINAL-dream410-2014-10-17_15.16.56//MCZ//data//insilico_size10_1_wildtype.tsv'
p363
sS'top_n_edges'
p364
I15
sS'log_dir'
p365
S'/home/netinf/NetInfJacGithubOct1714/Network-Inference-Workspace/output//MCZ-BOOKFINAL-dream410-2014-10-17_15.16.56//MCZ//log/'
p366
ssS'nirest'
p367
(dp368
S'restk'
p369
I10
sS'ratio_files'
p370
S'datasets/dream4_10/dream4_ts.tsv'
p371
sS'topd'
p372
I5
sS'config'
p373
S'config/nirest_testing.cfg'
p374
ssS'nir'
p375
(dp376
S'config'
p377
S'config/nir_testing.cfg'
p378
ssS'banjo'
p379
(dp380
S'num_genes'
p381
I10
sS'config'
p382
S'config/banjo_testing.cfg'
p383
ssS'dfg4grn'
p384
(dp385
S'cluster_expname'
p386
S'testing'
p387
sS'tau'
p388
I10
sS'lambda_w'
p389
I2
sS'cluster_procs'
p390
I1
sS'tau_range'
p391
(lp392
I1
aI3
asS'cluster_email'
p393
S'jml654@nyu.edu'
p394
sS'eta_z'
p395
I3
sS'eta_z_range'
p396
(lp397
F0.0001
aF0.1
asS'lambda_w_range'
p398
(lp399
F0.001
aF0.2
asS'cluster_priority'
p400
I1
sS'cluster_nodes'
p401
I1
sS'path'
p402
S'algorithms/dfg4grn/'
p403
sS'config'
p404
S'config/dfg4grn_testing.cfg'
p405
sS'cluster_username'
p406
S'jml654'
p407
ssS'clr'
p408
(dp409
S'config'
p410
S'config/clr_testing.cfg'
p411
ssS'inferelator2'
p412
(dp413
S'config'
p414
S'config/inferelator2_testing.cfg'
p415
sssS'ts_storage'
p416
(lp417
(iDataStore
MicroarrayData
p418
(dp419
g12
(lp420
(iDataStore
Experiment
p421
(dp422
g16
(dp423
S'G7'
p424
F0.6067846
sS'G6'
p425
F0.275493
sS'G5'
p426
F0.1004299
sS'G4'
p427
F0.7745716
sS'G3'
p428
F0.3550646
sS'G2'
p429
F0.1272186
sS'G1'
p430
F0.6665114
sS'G9'
p431
F0.6656366
sS'G8'
p432
F0.7430983
sS'G10'
p433
F0.6950638
ssg28
S'timeseries'
p434
sg30
g31
sg7
S'0.0'
p435
sg33
S'Timeseries-Rep4'
p436
sba(iDataStore
Experiment
p437
(dp438
g16
(dp439
g424
F0.6096963
sg425
F0.3107637
sg426
F0.1924591
sg427
F0.7229108
sg428
F0.3464115
sg429
F0.1218223
sg430
F0.3257748
sg431
F0.5554138
sg432
F0.7567515
sg433
F0.7327167
ssg28
g434
sg30
g31
sg7
S'50.0'
p440
sg33
g436
sba(iDataStore
Experiment
p441
(dp442
g16
(dp443
g424
F0.4647324
sg425
F0.3569736
sg426
F0.2333497
sg427
F0.586828
sg428
F0.5712888
sg429
F0.0443587
sg430
F0.1775012
sg431
F0.7211032
sg432
F0.6656993
sg433
F0.6717156
ssg28
g434
sg30
g31
sg7
S'100.0'
p444
sg33
g436
sba(iDataStore
Experiment
p445
(dp446
g16
(dp447
g424
F0.4200074
sg425
F0.3375671
sg426
F0.40451
sg427
F0.6338205
sg428
F0.4849771
sg429
F0.0615354
sg430
F0.1838851
sg431
F0.6402268
sg432
F0.7324089
sg433
F0.6970434
ssg28
g434
sg30
g31
sg7
S'150.0'
p448
sg33
g436
sba(iDataStore
Experiment
p449
(dp450
g16
(dp451
g424
F0.4145393
sg425
F0.2994227
sg426
F0.5583316
sg427
F0.5354375
sg428
F0.3435551
sg429
F0.1398431
sg430
F0.0930693
sg431
F0.5478739
sg432
F0.6771472
sg433
F0.7512751
ssg28
g434
sg30
g31
sg7
S'200.0'
p452
sg33
g436
sba(iDataStore
Experiment
p453
(dp454
g16
(dp455
g424
F0.5788573
sg425
F0.3676576
sg426
F0.6429076
sg427
F0.5255509
sg428
F0.3124305
sg429
F0.0886361
sg430
F0.0653015
sg431
F0.5983088
sg432
F0.8026375
sg433
F0.6088625
ssg28
g434
sg30
g31
sg7
S'250.0'
p456
sg33
g436
sba(iDataStore
Experiment
p457
(dp458
g16
(dp459
g424
F0.5993621
sg425
F0.2992928
sg426
F0.5350145
sg427
F0.4599706
sg428
F0.4126412
sg429
F0.094808
sg430
F0.1502136
sg431
F0.7288696
sg432
F0.6181808
sg433
F0.6660468
ssg28
g434
sg30
g31
sg7
S'300.0'
p460
sg33
g436
sba(iDataStore
Experiment
p461
(dp462
g16
(dp463
g424
F0.6775364
sg425
F0.3430145
sg426
F0.5641511
sg427
F0.4214017
sg428
F0.3764574
sg429
F0.090451
sg430
F0.0913323
sg431
F0.7736935
sg432
F0.5235399
sg433
F0.7443968
ssg28
g434
sg30
g31
sg7
S'350.0'
p464
sg33
g436
sba(iDataStore
Experiment
p465
(dp466
g16
(dp467
g424
F0.5142803
sg425
F0.2333228
sg426
F0.6718907
sg427
F0.5030134
sg428
F0.5188737
sg429
F0.1182462
sg430
F0.1358562
sg431
F0.6843619
sg432
F0.6087675
sg433
F0.836531
ssg28
g434
sg30
g31
sg7
S'400.0'
p468
sg33
g436
sba(iDataStore
Experiment
p469
(dp470
g16
(dp471
g424
F0.499568
sg425
F0.3815948
sg426
F0.6740419
sg427
F0.4831358
sg428
F0.3768678
sg429
F0.0765614
sg430
F0.1667014
sg431
F0.7486546
sg432
F0.5959077
sg433
F0.7173045
ssg28
g434
sg30
g31
sg7
S'450.0'
p472
sg33
g436
sba(iDataStore
Experiment
p473
(dp474
g16
(dp475
g424
F0.5091151
sg425
F0.3344889
sg426
F0.7354699
sg427
F0.5403027
sg428
F0.4322347
sg429
F0.075504
sg430
F0.1170103
sg431
F0.6725776
sg432
F0.7152812
sg433
F0.6325963
ssg28
g434
sg30
g31
sg7
S'500.0'
p476
sg33
g436
sba(iDataStore
Experiment
p477
(dp478
g16
(dp479
g424
F0.4479249
sg425
F0.358515
sg426
F0.485255
sg427
F0.618386
sg428
F0.3453156
sg429
F0.093721
sg430
F0.4708819
sg431
F0.7919255
sg432
F0.7052075
sg433
F0.5868152
ssg28
g434
sg30
g31
sg7
S'550.0'
p480
sg33
g436
sba(iDataStore
Experiment
p481
(dp482
g16
(dp483
g424
F0.4196698
sg425
F0.3239021
sg426
F0.3257959
sg427
F0.6233838
sg428
F0.4763379
sg429
F0.1443166
sg430
F0.5545089
sg431
F0.5791635
sg432
F0.72992
sg433
F0.6029599
ssg28
g434
sg30
g31
sg7
S'600.0'
p484
sg33
g436
sba(iDataStore
Experiment
p485
(dp486
g16
(dp487
g424
F0.4524902
sg425
F0.2928635
sg426
F0.2634359
sg427
F0.6429242
sg428
F0.352766
sg429
F0.1580246
sg430
F0.5717737
sg431
F0.6633159
sg432
F0.7210641
sg433
F0.6927663
ssg28
g434
sg30
g31
sg7
S'650.0'
p488
sg33
g436
sba(iDataStore
Experiment
p489
(dp490
g16
(dp491
g424
F0.6356541
sg425
F0.304971
sg426
F0.1906673
sg427
F0.7448212
sg428
F0.3817925
sg429
F0.0906398
sg430
F0.6437458
sg431
F0.8094115
sg432
F0.6836201
sg433
F0.7286575
ssg28
g434
sg30
g31
sg7
S'700.0'
p492
sg33
g436
sba(iDataStore
Experiment
p493
(dp494
g16
(dp495
g424
F0.5680143
sg425
F0.2934906
sg426
F0.1278089
sg427
F0.6477586
sg428
F0.4025808
sg429
F0.0959292
sg430
F0.6988616
sg431
F0.6819686
sg432
F0.7435989
sg433
F0.8213812
ssg28
g434
sg30
g31
sg7
S'750.0'
p496
sg33
g436
sba(iDataStore
Experiment
p497
(dp498
g16
(dp499
g424
F0.5652458
sg425
F0.3429125
sg426
F0.1340147
sg427
F0.7884273
sg428
F0.3520098
sg429
F0.1251139
sg430
F0.6002293
sg431
F0.7548764
sg432
F0.6701132
sg433
F0.6814079
ssg28
g434
sg30
g31
sg7
S'800.0'
p500
sg33
g436
sba(iDataStore
Experiment
p501
(dp502
g16
(dp503
g424
F0.3950302
sg425
F0.3146772
sg426
F0.1391781
sg427
F0.7086632
sg428
F0.4541817
sg429
F0.0985328
sg430
F0.751684
sg431
F0.6583495
sg432
F0.6562918
sg433
F0.6836276
ssg28
g434
sg30
g31
sg7
S'850.0'
p504
sg33
g436
sba(iDataStore
Experiment
p505
(dp506
g16
(dp507
g424
F0.4627621
sg425
F0.330916
sg426
F0.0960015
sg427
F0.700968
sg428
F0.4254553
sg429
F0.0823597
sg430
F0.705819
sg431
F0.6866225
sg432
F0.661009
sg433
F0.7453896
ssg28
g434
sg30
g31
sg7
S'900.0'
p508
sg33
g436
sba(iDataStore
Experiment
p509
(dp510
g16
(dp511
g424
F0.5903798
sg425
F0.3386791
sg426
F0.1389801
sg427
F0.6602306
sg428
F0.3168437
sg429
F0.113119
sg430
F0.6863142
sg431
F0.700166
sg432
F0.6151949
sg433
F0.645072
ssg28
g434
sg30
g31
sg7
S'950.0'
p512
sg33
g436
sba(iDataStore
Experiment
p513
(dp514
g16
(dp515
g424
F0.593867
sg425
F0.2846131
sg426
F0.1181666
sg427
F0.6695402
sg428
F0.3340166
sg429
F0.0780578
sg430
F0.6785873
sg431
F0.7702145
sg432
F0.6823825
sg433
F0.6068127
ssg28
g434
sg30
g31
sg7
S'1000.0'
p516
sg33
g436
sbasg28
g434
sg71
Nsg72
(lp517
g430
ag429
ag428
ag427
ag426
ag425
ag424
ag432
ag431
ag433
asg74
(lp518
S'Timeseries-Rep0'
p519
asba(iDataStore
MicroarrayData
p520
(dp521
g12
(lp522
(iDataStore
Experiment
p523
(dp524
g16
(dp525
g424
F0.5905584
sg425
F0.2494241
sg426
F0.1445523
sg427
F0.5990709
sg428
F0.3080785
sg429
F0.1735119
sg430
F0.6927804
sg431
F0.6891143
sg432
F0.636797
sg433
F0.6944974
ssg28
g434
sg30
g31
sg7
S'0.0'
p526
sg33
g436
sba(iDataStore
Experiment
p527
(dp528
g16
(dp529
g424
F0.2199619
sg425
F0.3952169
sg426
F0.2136285
sg427
F0.6576991
sg428
F0.2815777
sg429
F0.0954328
sg430
F0.6137
sg431
F0.684341
sg432
F0.5711943
sg433
F0.6816443
ssg28
g434
sg30
g31
sg7
S'50.0'
p530
sg33
g436
sba(iDataStore
Experiment
p531
(dp532
g16
(dp533
g424
F0.1706594
sg425
F0.3336192
sg426
F0.2556762
sg427
F0.6349119
sg428
F0.2896261
sg429
F0.0704157
sg430
F0.5923916
sg431
F0.6408686
sg432
F0.7645988
sg433
F0.6201303
ssg28
g434
sg30
g31
sg7
S'100.0'
p534
sg33
g436
sba(iDataStore
Experiment
p535
(dp536
g16
(dp537
g424
F0.1213159
sg425
F0.3849495
sg426
F0.1315485
sg427
F0.5846269
sg428
F0.1935983
sg429
F0.0880437
sg430
F0.5868361
sg431
F0.8166294
sg432
F0.7072442
sg433
F0.7047542
ssg28
g434
sg30
g31
sg7
S'150.0'
p538
sg33
g436
sba(iDataStore
Experiment
p539
(dp540
g16
(dp541
g424
F0.0786808
sg425
F0.3736593
sg426
F0.1687147
sg427
F0.4509727
sg428
F0.2186433
sg429
F0.1149911
sg430
F0.6293309
sg431
F0.803821
sg432
F0.6970827
sg433
F0.6925731
ssg28
g434
sg30
g31
sg7
S'200.0'
p542
sg33
g436
sba(iDataStore
Experiment
p543
(dp544
g16
(dp545
g424
F0.1242939
sg425
F0.3834565
sg426
F0.1772348
sg427
F0.4333604
sg428
F0.2137598
sg429
F0.0990501
sg430
F0.5170203
sg431
F0.7563581
sg432
F0.7901656
sg433
F0.7286596
ssg28
g434
sg30
g31
sg7
S'250.0'
p546
sg33
g436
sba(iDataStore
Experiment
p547
(dp548
g16
(dp549
g424
F0.1323223
sg425
F0.4000143
sg426
F0.2365102
sg427
F0.3898388
sg428
F0.289219
sg429
F0.1159865
sg430
F0.4709636
sg431
F0.7090849
sg432
F0.6791003
sg433
F0.824954
ssg28
g434
sg30
g31
sg7
S'300.0'
p550
sg33
g436
sba(iDataStore
Experiment
p551
(dp552
g16
(dp553
g424
F0.0792747
sg425
F0.3912156
sg426
F0.2065817
sg427
F0.4384157
sg428
F0.2997476
sg429
F0.080276
sg430
F0.6269998
sg431
F0.664113
sg432
F0.6322451
sg433
F0.7280306
ssg28
g434
sg30
g31
sg7
S'350.0'
p554
sg33
g436
sba(iDataStore
Experiment
p555
(dp556
g16
(dp557
g424
F0.1492018
sg425
F0.2349554
sg426
F0.1484264
sg427
F0.3779466
sg428
F0.2573068
sg429
F0.1042932
sg430
F0.5284701
sg431
F0.7596715
sg432
F0.792832
sg433
F0.7133538
ssg28
g434
sg30
g31
sg7
S'400.0'
p558
sg33
g436
sba(iDataStore
Experiment
p559
(dp560
g16
(dp561
g424
F0.1158488
sg425
F0.4213528
sg426
F0.1235777
sg427
F0.3494604
sg428
F0.2196169
sg429
F0.1482319
sg430
F0.5110939
sg431
F0.7145425
sg432
F0.674044
sg433
F0.7374688
ssg28
g434
sg30
g31
sg7
S'450.0'
p562
sg33
g436
sba(iDataStore
Experiment
p563
(dp564
g16
(dp565
g424
F0.1350158
sg425
F0.4517705
sg426
F0.2365731
sg427
F0.4211469
sg428
F0.3025012
sg429
F0.1153365
sg430
F0.4882966
sg431
F0.7176833
sg432
F0.6484841
sg433
F0.6872276
ssg28
g434
sg30
g31
sg7
S'500.0'
p566
sg33
g436
sba(iDataStore
Experiment
p567
(dp568
g16
(dp569
g424
F0.6042338
sg425
F0.307568
sg426
F0.2487479
sg427
F0.4513658
sg428
F0.3245931
sg429
F0.1181288
sg430
F0.6433641
sg431
F0.6728155
sg432
F0.7092563
sg433
F0.6264014
ssg28
g434
sg30
g31
sg7
S'550.0'
p570
sg33
g436
sba(iDataStore
Experiment
p571
(dp572
g16
(dp573
g424
F0.6519328
sg425
F0.382343
sg426
F0.1447856
sg427
F0.6388667
sg428
F0.3060205
sg429
F0.1228048
sg430
F0.6171846
sg431
F0.8328277
sg432
F0.8569027
sg433
F0.6102972
ssg28
g434
sg30
g31
sg7
S'600.0'
p574
sg33
g436
sba(iDataStore
Experiment
p575
(dp576
g16
(dp577
g424
F0.6791125
sg425
F0.3415498
sg426
F0.1544187
sg427
F0.6134333
sg428
F0.398727
sg429
F0.0804874
sg430
F0.8024419
sg431
F0.6930467
sg432
F0.7222545
sg433
F0.6109138
ssg28
g434
sg30
g31
sg7
S'650.0'
p578
sg33
g436
sba(iDataStore
Experiment
p579
(dp580
g16
(dp581
g424
F0.5099839
sg425
F0.3402294
sg426
F0.1578423
sg427
F0.6801495
sg428
F0.3594883
sg429
F0.0871222
sg430
F0.7804539
sg431
F0.6455296
sg432
F0.7069292
sg433
F0.7232683
ssg28
g434
sg30
g31
sg7
S'700.0'
p582
sg33
g436
sba(iDataStore
Experiment
p583
(dp584
g16
(dp585
g424
F0.5312501
sg425
F0.3014502
sg426
F0.0912002
sg427
F0.6614428
sg428
F0.4407318
sg429
F0.0996338
sg430
F0.8290307
sg431
F0.6898205
sg432
F0.6374457
sg433
F0.5949425
ssg28
g434
sg30
g31
sg7
S'750.0'
p586
sg33
g436
sba(iDataStore
Experiment
p587
(dp588
g16
(dp589
g424
F0.3978822
sg425
F0.3563181
sg426
F0.1013723
sg427
F0.6225854
sg428
F0.3369789
sg429
F0.0988457
sg430
F0.7490433
sg431
F0.7440107
sg432
F0.6009584
sg433
F0.7923625
ssg28
g434
sg30
g31
sg7
S'800.0'
p590
sg33
g436
sba(iDataStore
Experiment
p591
(dp592
g16
(dp593
g424
F0.3892781
sg425
F0.3467893
sg426
F0.1361985
sg427
F0.7599636
sg428
F0.4387776
sg429
F0.0482351
sg430
F0.5887312
sg431
F0.653354
sg432
F0.6715002
sg433
F0.7493886
ssg28
g434
sg30
g31
sg7
S'850.0'
p594
sg33
g436
sba(iDataStore
Experiment
p595
(dp596
g16
(dp597
g424
F0.4222378
sg425
F0.3105481
sg426
F0.168397
sg427
F0.5764897
sg428
F0.3228902
sg429
F0.107808
sg430
F0.6694072
sg431
F0.6421272
sg432
F0.7085699
sg433
F0.6938667
ssg28
g434
sg30
g31
sg7
S'900.0'
p598
sg33
g436
sba(iDataStore
Experiment
p599
(dp600
g16
(dp601
g424
F0.5092373
sg425
F0.2960746
sg426
F0.1180917
sg427
F0.7964334
sg428
F0.2685038
sg429
F0.0819181
sg430
F0.7164183
sg431
F0.6454818
sg432
F0.7121105
sg433
F0.6612289
ssg28
g434
sg30
g31
sg7
S'950.0'
p602
sg33
g436
sba(iDataStore
Experiment
p603
(dp604
g16
(dp605
g424
F0.5376463
sg425
F0.2432311
sg426
F0.1803657
sg427
F0.6352872
sg428
F0.3146458
sg429
F0.119864
sg430
F0.8032117
sg431
F0.6253106
sg432
F0.6763547
sg433
F0.5716938
ssg28
g434
sg30
g31
sg7
S'1000.0'
p606
sg33
g436
sbasg28
g434
sg71
Nsg72
(lp607
g430
ag429
ag428
ag427
ag426
ag425
ag424
ag432
ag431
ag433
asg74
(lp608
S'Timeseries-Rep1'
p609
asba(iDataStore
MicroarrayData
p610
(dp611
g12
(lp612
(iDataStore
Experiment
p613
(dp614
g16
(dp615
g424
F0.5852446
sg425
F0.2777284
sg426
F0.1394119
sg427
F0.6290043
sg428
F0.4955336
sg429
F0.0965407
sg430
F0.7025546
sg431
F0.7189792
sg432
F0.6987308
sg433
F0.6317014
ssg28
g434
sg30
g31
sg7
S'0.0'
p616
sg33
g436
sba(iDataStore
Experiment
p617
(dp618
g16
(dp619
g424
F0.3879914
sg425
F0.3160889
sg426
F0.1601289
sg427
F0.633102
sg428
F0.4120065
sg429
F0.0066399
sg430
F0.2670111
sg431
F0.8405381
sg432
F0.3125419
sg433
F0.7525926
ssg28
g434
sg30
g31
sg7
S'50.0'
p620
sg33
g436
sba(iDataStore
Experiment
p621
(dp622
g16
(dp623
g424
F0.5371867
sg425
F0.4121452
sg426
F0.3527526
sg427
F0.6388113
sg428
F0.3162661
sg429
F0.0002031
sg430
F0.1495577
sg431
F0.7847303
sg432
F0.2207124
sg433
F0.6308077
ssg28
g434
sg30
g31
sg7
S'100.0'
p624
sg33
g436
sba(iDataStore
Experiment
p625
(dp626
g16
(dp627
g424
F0.5854555
sg425
F0.4561672
sg426
F0.5828865
sg427
F0.5332911
sg428
F0.3444491
sg429
F7.26e-05
sg430
F0.1258573
sg431
F0.686476
sg432
F0.164159
sg433
F0.6603441
ssg28
g434
sg30
g31
sg7
S'150.0'
p628
sg33
g436
sba(iDataStore
Experiment
p629
(dp630
g16
(dp631
g424
F0.4715633
sg425
F0.5160537
sg426
F0.6474004
sg427
F0.4870183
sg428
F0.360118
sg429
F0.0007181
sg430
F0.1503708
sg431
F0.7514894
sg432
F0.1138825
sg433
F0.7220521
ssg28
g434
sg30
g31
sg7
S'200.0'
p632
sg33
g436
sba(iDataStore
Experiment
p633
(dp634
g16
(dp635
g424
F0.5616858
sg425
F0.5849437
sg426
F0.5962019
sg427
F0.3816565
sg428
F0.2514869
sg429
F0.0010901
sg430
F0.1147272
sg431
F0.7451011
sg432
F0.0875836
sg433
F0.9215333
ssg28
g434
sg30
g31
sg7
S'250.0'
p636
sg33
g436
sba(iDataStore
Experiment
p637
(dp638
g16
(dp639
g424
F0.5828932
sg425
F0.6962295
sg426
F0.7206053
sg427
F0.402796
sg428
F0.4130228
sg429
F0.0006993
sg430
F0.1136885
sg431
F0.7346484
sg432
F0.1047608
sg433
F0.6120013
ssg28
g434
sg30
g31
sg7
S'300.0'
p640
sg33
g436
sba(iDataStore
Experiment
p641
(dp642
g16
(dp643
g424
F0.5699641
sg425
F0.6188064
sg426
F0.6110892
sg427
F0.4555527
sg428
F0.5144453
sg429
F0.0006402
sg430
F0.1074903
sg431
F0.7260995
sg432
F0.1494655
sg433
F0.7034582
ssg28
g434
sg30
g31
sg7
S'350.0'
p644
sg33
g436
sba(iDataStore
Experiment
p645
(dp646
g16
(dp647
g424
F0.5705248
sg425
F0.634079
sg426
F0.7049432
sg427
F0.4184513
sg428
F0.3046374
sg429
F2.16e-05
sg430
F0.0916218
sg431
F0.7072688
sg432
F0.1345381
sg433
F0.7037104
ssg28
g434
sg30
g31
sg7
S'400.0'
p648
sg33
g436
sba(iDataStore
Experiment
p649
(dp650
g16
(dp651
g424
F0.5182417
sg425
F0.4893698
sg426
F0.6032927
sg427
F0.4398207
sg428
F0.4381759
sg429
F0.0001071
sg430
F0.070437
sg431
F0.7245269
sg432
F0.1445357
sg433
F0.6900767
ssg28
g434
sg30
g31
sg7
S'450.0'
p652
sg33
g436
sba(iDataStore
Experiment
p653
(dp654
g16
(dp655
g424
F0.5254869
sg425
F0.5912179
sg426
F0.6065379
sg427
F0.40814
sg428
F0.4247121
sg429
F2.43e-05
sg430
F0.1084545
sg431
F0.7796607
sg432
F0.1195
sg433
F0.7214128
ssg28
g434
sg30
g31
sg7
S'500.0'
p656
sg33
g436
sba(iDataStore
Experiment
p657
(dp658
g16
(dp659
g424
F0.4837116
sg425
F0.5662445
sg426
F0.6220579
sg427
F0.4666379
sg428
F0.3493963
sg429
F0.1669844
sg430
F0.4934324
sg431
F0.7879295
sg432
F0.5461221
sg433
F0.7344458
ssg28
g434
sg30
g31
sg7
S'550.0'
p660
sg33
g436
sba(iDataStore
Experiment
p661
(dp662
g16
(dp663
g424
F0.5869444
sg425
F0.4739788
sg426
F0.3116094
sg427
F0.5659879
sg428
F0.2905074
sg429
F0.1396843
sg430
F0.6485525
sg431
F0.654988
sg432
F0.6502586
sg433
F0.6450217
ssg28
g434
sg30
g31
sg7
S'600.0'
p664
sg33
g436
sba(iDataStore
Experiment
p665
(dp666
g16
(dp667
g424
F0.5316969
sg425
F0.3214644
sg426
F0.3052366
sg427
F0.5786856
sg428
F0.4188026
sg429
F0.0786818
sg430
F0.7971715
sg431
F0.6432834
sg432
F0.7105375
sg433
F0.7139627
ssg28
g434
sg30
g31
sg7
S'650.0'
p668
sg33
g436
sba(iDataStore
Experiment
p669
(dp670
g16
(dp671
g424
F0.4560579
sg425
F0.3322274
sg426
F0.1586621
sg427
F0.6022758
sg428
F0.4350727
sg429
F0.0780344
sg430
F0.5833888
sg431
F0.6150558
sg432
F0.678798
sg433
F0.7626299
ssg28
g434
sg30
g31
sg7
S'700.0'
p672
sg33
g436
sba(iDataStore
Experiment
p673
(dp674
g16
(dp675
g424
F0.3600829
sg425
F0.3789285
sg426
F0.1446601
sg427
F0.6865068
sg428
F0.3151357
sg429
F0.1123633
sg430
F0.7644667
sg431
F0.7599346
sg432
F0.6422636
sg433
F0.7957661
ssg28
g434
sg30
g31
sg7
S'750.0'
p676
sg33
g436
sba(iDataStore
Experiment
p677
(dp678
g16
(dp679
g424
F0.54599
sg425
F0.3403691
sg426
F0.101536
sg427
F0.6589912
sg428
F0.3121278
sg429
F0.1890966
sg430
F0.7656012
sg431
F0.8074774
sg432
F0.8619677
sg433
F0.7599446
ssg28
g434
sg30
g31
sg7
S'800.0'
p680
sg33
g436
sba(iDataStore
Experiment
p681
(dp682
g16
(dp683
g424
F0.4768284
sg425
F0.3956457
sg426
F0.2198009
sg427
F0.6910229
sg428
F0.463363
sg429
F0.1077332
sg430
F0.6111505
sg431
F0.6190746
sg432
F0.6286063
sg433
F0.6722002
ssg28
g434
sg30
g31
sg7
S'850.0'
p684
sg33
g436
sba(iDataStore
Experiment
p685
(dp686
g16
(dp687
g424
F0.4367724
sg425
F0.3303212
sg426
F0.14834
sg427
F0.6404274
sg428
F0.3130161
sg429
F0.1118654
sg430
F0.6721184
sg431
F0.7121735
sg432
F0.7552463
sg433
F0.6523538
ssg28
g434
sg30
g31
sg7
S'900.0'
p688
sg33
g436
sba(iDataStore
Experiment
p689
(dp690
g16
(dp691
g424
F0.4847003
sg425
F0.3811676
sg426
F0.1128817
sg427
F0.6113299
sg428
F0.333095
sg429
F0.1164068
sg430
F0.6289104
sg431
F0.7135124
sg432
F0.7976182
sg433
F0.7852974
ssg28
g434
sg30
g31
sg7
S'950.0'
p692
sg33
g436
sba(iDataStore
Experiment
p693
(dp694
g16
(dp695
g424
F0.5258812
sg425
F0.3700837
sg426
F0.1406588
sg427
F0.6687344
sg428
F0.3590816
sg429
F0.0879682
sg430
F0.7712319
sg431
F0.7878045
sg432
F0.7604233
sg433
F0.6290981
ssg28
g434
sg30
g31
sg7
S'1000.0'
p696
sg33
g436
sbasg28
g434
sg71
Nsg72
(lp697
g430
ag429
ag428
ag427
ag426
ag425
ag424
ag432
ag431
ag433
asg74
(lp698
S'Timeseries-Rep2'
p699
asba(iDataStore
MicroarrayData
p700
(dp701
g12
(lp702
(iDataStore
Experiment
p703
(dp704
g16
(dp705
g424
F0.3970339
sg425
F0.2432843
sg426
F0.1237001
sg427
F0.7087402
sg428
F0.5393216
sg429
F0.1646974
sg430
F0.7291507
sg431
F0.6285854
sg432
F0.7599215
sg433
F0.6076601
ssg28
g434
sg30
g31
sg7
S'0.0'
p706
sg33
g436
sba(iDataStore
Experiment
p707
(dp708
g16
(dp709
g424
F0.1468781
sg425
F0.4088945
sg426
F0.1012508
sg427
F0.6874071
sg428
F0.3894485
sg429
F0.1803674
sg430
F0.5109302
sg431
F0.4169359
sg432
F0.3528068
sg433
F0.7657149
ssg28
g434
sg30
g31
sg7
S'50.0'
p710
sg33
g436
sba(iDataStore
Experiment
p711
(dp712
g16
(dp713
g424
F0.0264118
sg425
F0.4252275
sg426
F0.1486603
sg427
F0.5980135
sg428
F0.2565762
sg429
F0.1875477
sg430
F0.6097374
sg431
F0.4086711
sg432
F0.3565534
sg433
F0.8156564
ssg28
g434
sg30
g31
sg7
S'100.0'
p714
sg33
g436
sba(iDataStore
Experiment
p715
(dp716
g16
(dp717
g424
F0.0259651
sg425
F0.4733397
sg426
F0.1471183
sg427
F0.4758323
sg428
F0.1696391
sg429
F0.2070564
sg430
F0.7059362
sg431
F0.3558222
sg432
F0.2819844
sg433
F0.7042378
ssg28
g434
sg30
g31
sg7
S'150.0'
p718
sg33
g436
sba(iDataStore
Experiment
p719
(dp720
g16
(dp721
g424
F0.0067659
sg425
F0.5552323
sg426
F0.1409376
sg427
F0.3854643
sg428
F0.2447503
sg429
F0.2695352
sg430
F0.779146
sg431
F0.4058957
sg432
F0.1862479
sg433
F0.6916045
ssg28
g434
sg30
g31
sg7
S'200.0'
p722
sg33
g436
sba(iDataStore
Experiment
p723
(dp724
g16
(dp725
g424
F0.0094517
sg425
F0.427473
sg426
F0.0985869
sg427
F0.449231
sg428
F0.1712229
sg429
F0.3182197
sg430
F0.7512179
sg431
F0.3565842
sg432
F0.2538905
sg433
F0.7226358
ssg28
g434
sg30
g31
sg7
S'250.0'
p726
sg33
g436
sba(iDataStore
Experiment
p727
(dp728
g16
(dp729
g424
F0.0019713
sg425
F0.5281481
sg426
F0.1500982
sg427
F0.3920308
sg428
F0.2081826
sg429
F0.2300156
sg430
F0.6662777
sg431
F0.2789396
sg432
F0.2450673
sg433
F0.8015413
ssg28
g434
sg30
g31
sg7
S'300.0'
p730
sg33
g436
sba(iDataStore
Experiment
p731
(dp732
g16
(dp733
g424
F0.011426
sg425
F0.5760348
sg426
F0.1285197
sg427
F0.3937747
sg428
F0.2921507
sg429
F0.2564993
sg430
F0.6446435
sg431
F0.2805749
sg432
F0.1746718
sg433
F0.7041561
ssg28
g434
sg30
g31
sg7
S'350.0'
p734
sg33
g436
sba(iDataStore
Experiment
p735
(dp736
g16
(dp737
g424
F0.0138563
sg425
F0.5195734
sg426
F0.1167303
sg427
F0.5795062
sg428
F0.1989521
sg429
F0.2767497
sg430
F0.7309197
sg431
F0.3775839
sg432
F0.2548303
sg433
F0.7438145
ssg28
g434
sg30
g31
sg7
S'400.0'
p738
sg33
g436
sba(iDataStore
Experiment
p739
(dp740
g16
(dp741
g424
F0.0025197
sg425
F0.4616732
sg426
F0.1496491
sg427
F0.3893692
sg428
F0.2291561
sg429
F0.2384708
sg430
F0.7241511
sg431
F0.3453198
sg432
F0.1916132
sg433
F0.7157578
ssg28
g434
sg30
g31
sg7
S'450.0'
p742
sg33
g436
sba(iDataStore
Experiment
p743
(dp744
g16
(dp745
g424
F0.007007
sg425
F0.4998435
sg426
F0.1109189
sg427
F0.289556
sg428
F0.2398097
sg429
F0.2557487
sg430
F0.6861697
sg431
F0.3096857
sg432
F0.1959993
sg433
F0.6144597
ssg28
g434
sg30
g31
sg7
S'500.0'
p746
sg33
g436
sba(iDataStore
Experiment
p747
(dp748
g16
(dp749
g424
F0.5668736
sg425
F0.4044676
sg426
F0.1082641
sg427
F0.44754
sg428
F0.2068039
sg429
F0.1897509
sg430
F0.6640881
sg431
F0.6214781
sg432
F0.6426656
sg433
F0.5714713
ssg28
g434
sg30
g31
sg7
S'550.0'
p750
sg33
g436
sba(iDataStore
Experiment
p751
(dp752
g16
(dp753
g424
F0.597794
sg425
F0.4860355
sg426
F0.1010354
sg427
F0.5663255
sg428
F0.3196045
sg429
F0.1523764
sg430
F0.637497
sg431
F0.6409856
sg432
F0.7231546
sg433
F0.6966782
ssg28
g434
sg30
g31
sg7
S'600.0'
p754
sg33
g436
sba(iDataStore
Experiment
p755
(dp756
g16
(dp757
g424
F0.6950467
sg425
F0.4614339
sg426
F0.1013164
sg427
F0.6595041
sg428
F0.406865
sg429
F0.1338911
sg430
F0.7156959
sg431
F0.6558541
sg432
F0.7188045
sg433
F0.7758014
ssg28
g434
sg30
g31
sg7
S'650.0'
p758
sg33
g436
sba(iDataStore
Experiment
p759
(dp760
g16
(dp761
g424
F0.5087046
sg425
F0.3561251
sg426
F0.1462886
sg427
F0.6690486
sg428
F0.4325222
sg429
F0.1458993
sg430
F0.6367377
sg431
F0.7491581
sg432
F0.6382091
sg433
F0.7329435
ssg28
g434
sg30
g31
sg7
S'700.0'
p762
sg33
g436
sba(iDataStore
Experiment
p763
(dp764
g16
(dp765
g424
F0.4667717
sg425
F0.3473546
sg426
F0.1460243
sg427
F0.5726726
sg428
F0.4342745
sg429
F0.1471605
sg430
F0.6861329
sg431
F0.7790399
sg432
F0.6700589
sg433
F0.7393787
ssg28
g434
sg30
g31
sg7
S'750.0'
p766
sg33
g436
sba(iDataStore
Experiment
p767
(dp768
g16
(dp769
g424
F0.5446558
sg425
F0.2765572
sg426
F0.1294852
sg427
F0.743286
sg428
F0.438485
sg429
F0.1238498
sg430
F0.7440202
sg431
F0.6396986
sg432
F0.7585209
sg433
F0.668421
ssg28
g434
sg30
g31
sg7
S'800.0'
p770
sg33
g436
sba(iDataStore
Experiment
p771
(dp772
g16
(dp773
g424
F0.4650374
sg425
F0.344726
sg426
F0.0999712
sg427
F0.5678651
sg428
F0.4268514
sg429
F0.0662469
sg430
F0.8967149
sg431
F0.6389196
sg432
F0.7023964
sg433
F0.6975826
ssg28
g434
sg30
g31
sg7
S'850.0'
p774
sg33
g436
sba(iDataStore
Experiment
p775
(dp776
g16
(dp777
g424
F0.4798852
sg425
F0.3897331
sg426
F0.1245277
sg427
F0.688654
sg428
F0.4127351
sg429
F0.0664624
sg430
F0.756436
sg431
F0.7970938
sg432
F0.6957703
sg433
F0.6599207
ssg28
g434
sg30
g31
sg7
S'900.0'
p778
sg33
g436
sba(iDataStore
Experiment
p779
(dp780
g16
(dp781
g424
F0.4785983
sg425
F0.2650917
sg426
F0.0947804
sg427
F0.5188151
sg428
F0.3728141
sg429
F0.0715481
sg430
F0.679297
sg431
F0.5806831
sg432
F0.7806962
sg433
F0.791336
ssg28
g434
sg30
g31
sg7
S'950.0'
p782
sg33
g436
sba(iDataStore
Experiment
p783
(dp784
g16
(dp785
g424
F0.3951515
sg425
F0.3540091
sg426
F0.1239435
sg427
F0.8028182
sg428
F0.3585051
sg429
F0.0930319
sg430
F0.6020569
sg431
F0.7304382
sg432
F0.7849719
sg433
F0.6863379
ssg28
g434
sg30
g31
sg7
S'1000.0'
p786
sg33
g436
sbasg28
g434
sg71
Nsg72
(lp787
g430
ag429
ag428
ag427
ag426
ag425
ag424
ag432
ag431
ag433
asg74
(lp788
S'Timeseries-Rep3'
p789
asba(iDataStore
MicroarrayData
p790
(dp791
g12
(lp792
(iDataStore
Experiment
p793
(dp794
g16
(dp795
g424
F0.4516194
sg425
F0.3092021
sg426
F0.0850342
sg427
F0.6301302
sg428
F0.4215624
sg429
F0.0789012
sg430
F0.7147163
sg431
F0.8362663
sg432
F0.6951692
sg433
F0.6439763
ssg28
g434
sg30
g31
sg7
S'0.0'
p796
sg33
g436
sba(iDataStore
Experiment
p797
(dp798
g16
(dp799
g424
F0.2277307
sg425
F0.3514063
sg426
F0.0442124
sg427
F0.649465
sg428
F0.2933042
sg429
F0.1135145
sg430
F0.6338617
sg431
F0.3862019
sg432
F0.7833732
sg433
F0.6660204
ssg28
g434
sg30
g31
sg7
S'50.0'
p800
sg33
g436
sba(iDataStore
Experiment
p801
(dp802
g16
(dp803
g424
F0.1633944
sg425
F0.3053646
sg426
F0.026979
sg427
F0.5906159
sg428
F0.3235387
sg429
F0.0807247
sg430
F0.6247811
sg431
F0.1997879
sg432
F0.8113616
sg433
F0.6863509
ssg28
g434
sg30
g31
sg7
S'100.0'
p804
sg33
g436
sba(iDataStore
Experiment
p805
(dp806
g16
(dp807
g424
F0.1746293
sg425
F0.3056355
sg426
F0.0273254
sg427
F0.4836713
sg428
F0.3469269
sg429
F0.0561945
sg430
F0.719644
sg431
F0.1924133
sg432
F0.8313165
sg433
F0.717086
ssg28
g434
sg30
g31
sg7
S'150.0'
p808
sg33
g436
sba(iDataStore
Experiment
p809
(dp810
g16
(dp811
g424
F0.1830969
sg425
F0.3537859
sg426
F0.0469687
sg427
F0.6042179
sg428
F0.4130727
sg429
F0.0723323
sg430
F0.709418
sg431
F0.0529535
sg432
F0.6419759
sg433
F0.5236239
ssg28
g434
sg30
g31
sg7
S'200.0'
p812
sg33
g436
sba(iDataStore
Experiment
p813
(dp814
g16
(dp815
g424
F0.1575486
sg425
F0.3008098
sg426
F0.0250493
sg427
F0.3472931
sg428
F0.2922907
sg429
F0.0573258
sg430
F0.6711232
sg431
F0.1137219
sg432
F0.7444961
sg433
F0.2911146
ssg28
g434
sg30
g31
sg7
S'250.0'
p816
sg33
g436
sba(iDataStore
Experiment
p817
(dp818
g16
(dp819
g424
F0.2135964
sg425
F0.3098801
sg426
F0.0333171
sg427
F0.3764952
sg428
F0.2427562
sg429
F0.1384099
sg430
F0.5962738
sg431
F0.0377755
sg432
F0.8112381
sg433
F0.2117541
ssg28
g434
sg30
g31
sg7
S'300.0'
p820
sg33
g436
sba(iDataStore
Experiment
p821
(dp822
g16
(dp823
g424
F0.1974683
sg425
F0.3432863
sg426
F0.0494189
sg427
F0.4628633
sg428
F0.1998363
sg429
F0.119761
sg430
F0.6805381
sg431
F0.0897643
sg432
F0.7483208
sg433
F0.1264955
ssg28
g434
sg30
g31
sg7
S'350.0'
p824
sg33
g436
sba(iDataStore
Experiment
p825
(dp826
g16
(dp827
g424
F0.2231497
sg425
F0.2891713
sg426
F0.0284715
sg427
F0.4117866
sg428
F0.2400097
sg429
F0.1229227
sg430
F0.7371512
sg431
F0.0679836
sg432
F0.7271195
sg433
F0.0998985
ssg28
g434
sg30
g31
sg7
S'400.0'
p828
sg33
g436
sba(iDataStore
Experiment
p829
(dp830
g16
(dp831
g424
F0.1698966
sg425
F0.311225
sg426
F0.0321371
sg427
F0.3639826
sg428
F0.2428435
sg429
F0.089656
sg430
F0.6819273
sg431
F0.0699389
sg432
F0.7200156
sg433
F0.1374822
ssg28
g434
sg30
g31
sg7
S'450.0'
p832
sg33
g436
sba(iDataStore
Experiment
p833
(dp834
g16
(dp835
g424
F0.1877961
sg425
F0.3785478
sg426
F0.021169
sg427
F0.4690353
sg428
F0.2636132
sg429
F0.099547
sg430
F0.7104574
sg431
F0.0821805
sg432
F0.5456798
sg433
F0.100758
ssg28
g434
sg30
g31
sg7
S'500.0'
p836
sg33
g436
sba(iDataStore
Experiment
p837
(dp838
g16
(dp839
g424
F0.570452
sg425
F0.2640264
sg426
F0.0860904
sg427
F0.3653458
sg428
F0.1216754
sg429
F0.1356463
sg430
F0.7680006
sg431
F0.5045298
sg432
F0.6508609
sg433
F0.1422282
ssg28
g434
sg30
g31
sg7
S'550.0'
p840
sg33
g436
sba(iDataStore
Experiment
p841
(dp842
g16
(dp843
g424
F0.6164915
sg425
F0.3445713
sg426
F0.0941271
sg427
F0.3960368
sg428
F0.1284694
sg429
F0.0697471
sg430
F0.801327
sg431
F0.648607
sg432
F0.8255316
sg433
F0.5994218
ssg28
g434
sg30
g31
sg7
S'600.0'
p844
sg33
g436
sba(iDataStore
Experiment
p845
(dp846
g16
(dp847
g424
F0.56178
sg425
F0.3458663
sg426
F0.1353537
sg427
F0.5868999
sg428
F0.3661953
sg429
F0.1193078
sg430
F0.5906615
sg431
F0.7214906
sg432
F0.7139359
sg433
F0.8022524
ssg28
g434
sg30
g31
sg7
S'650.0'
p848
sg33
g436
sba(iDataStore
Experiment
p849
(dp850
g16
(dp851
g424
F0.6509316
sg425
F0.3166416
sg426
F0.0890263
sg427
F0.6718697
sg428
F0.3591009
sg429
F0.1188755
sg430
F0.7513218
sg431
F0.6535027
sg432
F0.6390672
sg433
F0.6646572
ssg28
g434
sg30
g31
sg7
S'700.0'
p852
sg33
g436
sba(iDataStore
Experiment
p853
(dp854
g16
(dp855
g424
F0.6655727
sg425
F0.3007214
sg426
F0.0909344
sg427
F0.774945
sg428
F0.48233
sg429
F0.0562414
sg430
F0.7609359
sg431
F0.7400781
sg432
F0.62152
sg433
F0.6733657
ssg28
g434
sg30
g31
sg7
S'750.0'
p856
sg33
g436
sba(iDataStore
Experiment
p857
(dp858
g16
(dp859
g424
F0.332873
sg425
F0.3250779
sg426
F0.0789572
sg427
F0.6708727
sg428
F0.3442142
sg429
F0.1250612
sg430
F0.7104486
sg431
F0.5766519
sg432
F0.5702048
sg433
F0.6451817
ssg28
g434
sg30
g31
sg7
S'800.0'
p860
sg33
g436
sba(iDataStore
Experiment
p861
(dp862
g16
(dp863
g424
F0.4102492
sg425
F0.4497987
sg426
F0.1246992
sg427
F0.8145937
sg428
F0.230909
sg429
F0.1409962
sg430
F0.6785809
sg431
F0.727876
sg432
F0.5818118
sg433
F0.6745839
ssg28
g434
sg30
g31
sg7
S'850.0'
p864
sg33
g436
sba(iDataStore
Experiment
p865
(dp866
g16
(dp867
g424
F0.5112388
sg425
F0.2465951
sg426
F0.1091451
sg427
F0.7641729
sg428
F0.2433752
sg429
F0.1388405
sg430
F0.5603117
sg431
F0.8139243
sg432
F0.6467664
sg433
F0.7195319
ssg28
g434
sg30
g31
sg7
S'900.0'
p868
sg33
g436
sba(iDataStore
Experiment
p869
(dp870
g16
(dp871
g424
F0.5826744
sg425
F0.2454982
sg426
F0.1401569
sg427
F0.6707907
sg428
F0.307848
sg429
F0.0941102
sg430
F0.609001
sg431
F0.7054992
sg432
F0.57984
sg433
F0.6785874
ssg28
g434
sg30
g31
sg7
S'950.0'
p872
sg33
g436
sba(iDataStore
Experiment
p873
(dp874
g16
(dp875
g424
F0.6863531
sg425
F0.3958538
sg426
F0.1560013
sg427
F0.7689856
sg428
F0.393153
sg429
F0.1153804
sg430
F0.6467795
sg431
F0.6372677
sg432
F0.7454198
sg433
F0.7405712
ssg28
g434
sg30
g31
sg7
S'1000.0'
p876
sg33
g436
sbasg28
g434
sg71
Nsg72
(lp877
g430
ag429
ag428
ag427
ag426
ag425
ag424
ag432
ag431
ag433
asg74
(lp878
g436
asbasS'tZero_storage'
p879
(iDataStore
MicroarrayData
p880
(dp881
g12
(lp882
g421
ag523
ag613
ag703
ag793
asg28
S'steadystate'
p883
sg71
Nsg72
g517
sg74
(lp884
S'TimeZeros.tsv'
p885
asbsS'alg_name'
p886
S'mcz'
p887
sg365
g366
sg309
S'/home/netinf/NetInfJacGithubOct1714/Network-Inference-Workspace/output//MCZ-BOOKFINAL-dream410-2014-10-17_15.16.56//MCZ//mcz_program/'
p888
sS'wt_storage'
p889
(iDataStore
MicroarrayData
p890
(dp891
g12
(lp892
(iDataStore
Experiment
p893
(dp894
g16
(dp895
S'G7'
p896
F0.496733
sS'G6'
p897
F0.3258775
sS'G5'
p898
F0.1464854
sS'G4'
p899
F0.6047832
sS'G3'
p900
F0.3287936
sS'G2'
p901
F0.1231706
sS'G1'
p902
F0.6046824
sS'G9'
p903
F0.6140849
sS'G8'
p904
F0.6496271
sS'G10'
p905
F0.7481792
ssg28
g362
sg30
g31
sg7
g32
sg33
g110
sbasg28
g362
sg71
Nsg72
(lp906
g902
ag901
ag900
ag899
ag898
ag897
ag896
ag904
ag903
ag905
asg74
(lp907
S'insilico_size10_1_wildtype.tsv'
p908
asbsS'zscores'
p909
(lp910
(g430
g426
F12.1892249232672
tp911
a(g431
g433
F-8.02904098286218
tp912
a(g432
g425
F4.71476527448618
tp913
a(g427
g424
F-4.11560537521685
tp914
a(g430
g424
F2.79908897942419
tp915
a(g427
g428
F2.63376792315505
tp916
a(g425
g429
F2.50529678951073
tp917
a(g430
g429
F2.28098001614935
tp918
a(g424
g427
F-2.12929400371296
tp919
a(g426
g430
F1.9932588788784
tp920
a(g431
g428
F-1.87326425886882
tp921
a(g427
g430
F1.61429446723738
tp922
a(g430
g427
F-1.58558230983403
tp923
a(g433
g427
F-1.57800902393012
tp924
a(g430
g428
F-1.52806524392996
tp925
a(g428
g427
F-1.52186922321545
tp926
a(g431
g424
F1.48186007334479
tp927
a(g424
g431
F1.46991718326261
tp928
a(g428
g425
F1.46126929016957
tp929
a(g432
g429
F1.43409958870626
tp930
a(g428
g432
F1.38859826939337
tp931
a(g431
g427
F-1.37068092580412
tp932
a(g426
g432
F-1.35508654648995
tp933
a(g425
g433
F1.28689951721195
tp934
a(g426
g433
F1.25091349733671
tp935
a(g427
g431
F-1.24586093843709
tp936
a(g429
g433
F1.23776916749639
tp937
a(g428
g424
F1.20607346032146
tp938
a(g432
g430
F1.09118958279216
tp939
a(g430
g425
F1.07327922626404
tp940
a(g425
g432
F-1.07302577271997
tp941
a(g432
g431
F1.07128329532409
tp942
a(g430
g432
F1.04024536664184
tp943
a(g433
g430
F1.0262432264499
tp944
a(g425
g430
F-1.01676083057024
tp945
a(g431
g430
F1.01308525139067
tp946
a(g431
g432
F0.958017495791206
tp947
a(g424
g428
F-0.929391773400526
tp948
a(g430
g431
F-0.823183377972198
tp949
a(g425
g428
F0.799088981706634
tp950
a(g428
g426
F-0.785123417939668
tp951
a(g424
g432
F0.759490515774158
tp952
a(g425
g424
F-0.748209740828471
tp953
a(g433
g424
F0.738369992973658
tp954
a(g424
g426
F-0.691789488567248
tp955
a(g424
g433
F-0.683497183950152
tp956
a(g425
g431
F0.63421312204471
tp957
a(g429
g431
F0.603922581777548
tp958
a(g426
g431
F0.595052380533258
tp959
a(g427
g432
F-0.588342644711355
tp960
a(g433
g425
F0.570978817912999
tp961
a(g429
g425
F0.570531258547317
tp962
a(g425
g426
F-0.507093297003491
tp963
a(g429
g426
F0.50033022808834
tp964
a(g433
g431
F0.475154884302179
tp965
a(g427
g426
F0.462648483532259
tp966
a(g428
g431
F0.441229529338331
tp967
a(g426
g427
F-0.396399828259048
tp968
a(g426
g425
F0.393069721073298
tp969
a(g426
g428
F0.382621199244474
tp970
a(g430
g433
F0.348216869741082
tp971
a(g433
g428
F0.328839577200392
tp972
a(g429
g430
F0.325734683168747
tp973
a(g428
g433
F-0.311299236448084
tp974
a(g424
g429
F-0.303738457415175
tp975
a(g427
g433
F0.303401361118309
tp976
a(g431
g426
F0.227467234937073
tp977
a(g427
g425
F-0.223229439759821
tp978
a(g432
g428
F-0.2167914807569
tp979
a(g432
g427
F0.212675157753685
tp980
a(g429
g428
F-0.195792499863061
tp981
a(g433
g429
F0.18594358860265
tp982
a(g428
g429
F0.178214301947941
tp983
a(g429
g424
F-0.170504095720541
tp984
a(g429
g427
F-0.166184823417604
tp985
a(g424
g430
F-0.162692711296177
tp986
a(g426
g429
F0.15413692128319
tp987
a(g427
g429
F-0.110128154717222
tp988
a(g433
g432
F-0.084723054209282
tp989
a(g432
g424
F0.0753551647466159
tp990
a(g429
g432
F-0.071798480347815
tp991
a(g432
g426
F-0.0650551765315698
tp992
a(g424
g425
F0.0428899256052181
tp993
a(g426
g424
F0.0299417564029388
tp994
a(g431
g429
F0.026723884814025
tp995
a(g428
g430
F0.025882682879531
tp996
a(g433
g426
F0.0191289289170194
tp997
a(g431
g425
F-0.0149302121940855
tp998
a(g432
g433
F0.00562216439546907
tp999
a(g425
g427
F-0.00514361780530669
tp1000
a(g430
g430
F0.0
tp1001
a(g429
g429
F0.0
tp1002
a(g428
g428
F0.0
tp1003
a(g427
g427
F0.0
tp1004
a(g426
g426
F0.0
tp1005
a(g425
g425
F0.0
tp1006
a(g424
g424
F0.0
tp1007
a(g432
g432
F0.0
tp1008
a(g431
g431
F0.0
tp1009
a(g433
g433
F0.0
tp1010
asS'other_storage'
p1011
(iDataStore
MicroarrayData
p1012
(dp1013
g12
(lp1014
(iDataStore
Experiment
p1015
(dp1016
g16
(dp1017
S'G7'
p1018
F0.6244579
sS'G6'
p1019
F0.3160643
sS'G5'
p1020
F0.3456091
sS'G4'
p1021
F0.6396958
sS'G3'
p1022
F0.3478002
sS'G2'
p1023
F0.0722337
sS'G1'
p1024
F0.389841
sS'G9'
p1025
F0.6661835
sS'G8'
p1026
F0.6492305
sS'G10'
p1027
F0.6923661
ssg28
S'knockdown'
p1028
sg30
g31
sg7
g32
sg33
g268
sba(iDataStore
Experiment
p1029
(dp1030
g16
(dp1031
g1018
F0.463641
sg1019
F0.3326363
sg1020
F0.148526
sg1021
F0.6607454
sg1022
F0.4121334
sg1023
F0.0357751
sg1024
F0.8357763
sg1025
F0.776379
sg1026
F0.8164285
sg1027
F0.5841345
ssg28
g1028
sg30
g31
sg7
g38
sg33
g268
sba(iDataStore
Experiment
p1032
(dp1033
g16
(dp1034
g1018
F0.5354631
sg1019
F0.2568047
sg1020
F0.1658057
sg1021
F0.7067496
sg1022
F0.2647904
sg1023
F0.0840938
sg1024
F0.6812331
sg1025
F0.684542
sg1026
F0.7055173
sg1027
F0.7791802
ssg28
g1028
sg30
g31
sg7
g42
sg33
g268
sba(iDataStore
Experiment
p1035
(dp1036
g16
(dp1037
g1018
F0.4754313
sg1019
F0.2900926
sg1020
F0.0742647
sg1021
F0.4466983
sg1022
F0.4119282
sg1023
F0.0607266
sg1024
F0.6802011
sg1025
F0.6775331
sg1026
F0.5998749
sg1027
F0.7786995
ssg28
g1028
sg30
g31
sg7
g46
sg33
g268
sba(iDataStore
Experiment
p1038
(dp1039
g16
(dp1040
g1018
F0.4780143
sg1019
F0.2532243
sg1020
F0.1224172
sg1021
F0.7210109
sg1022
F0.4103195
sg1023
F0.0750232
sg1024
F0.6363
sg1025
F0.6573481
sg1026
F0.6185092
sg1027
F0.6908296
ssg28
g1028
sg30
g31
sg7
g50
sg33
g268
sba(iDataStore
Experiment
p1041
(dp1042
g16
(dp1043
g1018
F0.5961106
sg1019
F0.1630253
sg1020
F0.1544049
sg1021
F0.6523474
sg1022
F0.3249278
sg1023
F0.1150666
sg1024
F0.6742165
sg1025
F0.7959911
sg1026
F0.7112882
sg1027
F0.6985576
ssg28
g1028
sg30
g31
sg7
g54
sg33
g268
sba(iDataStore
Experiment
p1044
(dp1045
g16
(dp1046
g1018
F0.3586357
sg1019
F0.2745215
sg1020
F0.1092644
sg1021
F0.5218381
sg1022
F0.2482135
sg1023
F0.1163645
sg1024
F0.7705951
sg1025
F0.6551592
sg1026
F0.6390914
sg1027
F0.6830314
ssg28
g1028
sg30
g31
sg7
g58
sg33
g268
sba(iDataStore
Experiment
p1047
(dp1048
g16
(dp1049
g1018
F0.4134679
sg1019
F0.5216254
sg1020
F0.1001786
sg1021
F0.6765084
sg1022
F0.5012037
sg1023
F0.1783586
sg1024
F0.8163943
sg1025
F0.6653574
sg1026
F0.3217026
sg1027
F0.6734377
ssg28
g1028
sg30
g31
sg7
g62
sg33
g268
sba(iDataStore
Experiment
p1050
(dp1051
g16
(dp1052
g1018
F0.6016538
sg1019
F0.2276353
sg1020
F0.1153215
sg1021
F0.7156928
sg1022
F0.4137001
sg1023
F0.1089892
sg1024
F0.7477993
sg1025
F0.415616
sg1026
F0.7493981
sg1027
F0.6208126
ssg28
g1028
sg30
g31
sg7
g66
sg33
g268
sba(iDataStore
Experiment
p1053
(dp1054
g16
(dp1055
g1018
F0.6386655
sg1019
F0.3004501
sg1020
F0.0827235
sg1021
F0.7476172
sg1022
F0.4537613
sg1023
F0.1386172
sg1024
F0.6891057
sg1025
F0.8119234
sg1026
F0.6910927
sg1027
F0.2645752
ssg28
g1028
sg30
g31
sg7
g70
sg33
g268
sbasg28
g1028
sg71
Nsg72
(lp1056
g1024
ag1023
ag1022
ag1021
ag1020
ag1019
ag1018
ag1026
ag1025
ag1027
asg74
(lp1057
S'insilico_size10_1_knockdowns.tsv'
p1058
asbsg72
g517
sS'cwd'
p1059
g888
sS'network'
p1060
(iNetwork
Network
p1061
(dp1062
S'binary'
p1063
I00
sg1060
(dp1064
g424
(dp1065
g424
F0.0
sg425
F0.0428899256052181
sg426
F-0.691789488567248
sg427
F-2.12929400371296
sg428
F-0.929391773400526
sg429
F-0.303738457415175
sg430
F-0.162692711296177
sg431
F1.46991718326261
sg432
F0.759490515774158
sg433
F-0.683497183950152
ssg425
(dp1066
g424
F-0.748209740828471
sg425
F0.0
sg426
F-0.507093297003491
sg427
F-0.00514361780530669
sg428
F0.799088981706634
sg429
F2.50529678951073
sg430
F-1.01676083057024
sg431
F0.63421312204471
sg432
F-1.07302577271997
sg433
F1.28689951721195
ssg426
(dp1067
g424
F0.0299417564029388
sg425
F0.393069721073298
sg426
F0.0
sg427
F-0.396399828259048
sg428
F0.382621199244474
sg429
F0.15413692128319
sg430
F1.9932588788784
sg431
F0.595052380533258
sg432
F-1.35508654648995
sg433
F1.25091349733671
ssg427
(dp1068
g424
F-4.11560537521685
sg425
F-0.223229439759821
sg426
F0.462648483532259
sg427
F0.0
sg428
F2.63376792315505
sg429
F-0.110128154717222
sg430
F1.61429446723738
sg431
F-1.24586093843709
sg432
F-0.588342644711355
sg433
F0.303401361118309
ssg428
(dp1069
g424
F1.20607346032146
sg425
F1.46126929016957
sg426
F-0.785123417939668
sg427
F-1.52186922321545
sg428
F0.0
sg429
F0.178214301947941
sg430
F0.025882682879531
sg431
F0.441229529338331
sg432
F1.38859826939337
sg433
F-0.311299236448084
ssg429
(dp1070
g424
F-0.170504095720541
sg425
F0.570531258547317
sg426
F0.50033022808834
sg427
F-0.166184823417604
sg428
F-0.195792499863061
sg429
F0.0
sg430
F0.325734683168747
sg431
F0.603922581777548
sg432
F-0.071798480347815
sg433
F1.23776916749639
ssg430
(dp1071
g424
F2.79908897942419
sg425
F1.07327922626404
sg426
F12.1892249232672
sg427
F-1.58558230983403
sg428
F-1.52806524392996
sg429
F2.28098001614935
sg430
F0.0
sg431
F-0.823183377972198
sg432
F1.04024536664184
sg433
F0.348216869741082
ssg431
(dp1072
g424
F1.48186007334479
sg425
F-0.0149302121940855
sg426
F0.227467234937073
sg427
F-1.37068092580412
sg428
F-1.87326425886882
sg429
F0.026723884814025
sg430
F1.01308525139067
sg431
F0.0
sg432
F0.958017495791206
sg433
F-8.02904098286218
ssg432
(dp1073
g424
F0.0753551647466159
sg425
F4.71476527448618
sg426
F-0.0650551765315698
sg427
F0.212675157753685
sg428
F-0.2167914807569
sg429
F1.43409958870626
sg430
F1.09118958279216
sg431
F1.07128329532409
sg432
F0.0
sg433
F0.00562216439546907
ssg433
(dp1074
g424
F0.738369992973658
sg425
F0.570978817912999
sg426
F0.0191289289170194
sg427
F-1.57800902393012
sg428
F0.328839577200392
sg429
F0.18594358860265
sg430
F1.0262432264499
sg431
F0.475154884302179
sg432
F-0.084723054209282
sg433
F0.0
sssS'cutoff'
p1075
I0
sS'signed'
p1076
I00
sS'original_network'
p1077
(lp1078
sS'thresh'
p1079
I0
sg72
g517
sbsg354
g355
sb.