((lp0
(iJobManager
Job
p1
(dp2
S'status'
p3
S'Finished.'
p4
sS'alg'
p5
(imcz
MCZ
p6
(dp7
S'exp_data'
p8
NsS'cmd'
p9
S'Rscript mcz.R /home/netinf/NetInfJacGithubOct1714/Network-Inference-Workspace/output//MCZ-BOOKFINAL-dream410-2014-10-17_15.16.56//MCZ//data//insilico_size10_1_wildtype.tsv /home/netinf/NetInfJacGithubOct1714/Network-Inference-Workspace/output//MCZ-BOOKFINAL-dream410-2014-10-17_15.16.56//MCZ//data//insilico_size10_1_knockouts.tsv /home/netinf/NetInfJacGithubOct1714/Network-Inference-Workspace/output//MCZ-BOOKFINAL-dream410-2014-10-17_15.16.56//MCZ//data//insilico_size10_1_knockdowns.tsv /home/netinf/NetInfJacGithubOct1714/Network-Inference-Workspace/output//MCZ-BOOKFINAL-dream410-2014-10-17_15.16.56//MCZ//data//TimeZeros.tsv'
p10
sS'data_dir'
p11
S'/home/netinf/NetInfJacGithubOct1714/Network-Inference-Workspace/output//MCZ-BOOKFINAL-dream410-2014-10-17_15.16.56//MCZ//data/'
p12
sS'name'
p13
S'MCZ'
p14
sS'ko_storage'
p15
(iDataStore
MicroarrayData
p16
(dp17
S'experiments'
p18
(lp19
(iDataStore
Experiment
p20
(dp21
S'ratios'
p22
(dp23
S'G7'
p24
F0.8300751
sS'G6'
p25
F0.375175
sS'G5'
p26
F0.8043362
sS'G4'
p27
F0.362374
sS'G3'
p28
F0.2643345
sS'G2'
p29
F0.3726836
sS'G1'
p30
F0.0
sS'G9'
p31
F0.6211513
sS'G8'
p32
F0.7745205
sS'G10'
p33
F0.7196954
ssS'type'
p34
S'knockout'
p35
sS'tfs'
p36
(lp37
sg13
S'0'
p38
sS'file'
p39
S'datasets/DREAM4_InSilico_Size10/insilico_size10_1/insilico_size10_1_knockouts.tsv'
p40
sba(iDataStore
Experiment
p41
(dp42
g22
(dp43
g24
F0.5208251
sg25
F0.3396784
sg26
F0.151023
sg27
F0.600287
sg28
F0.3771581
sg29
F0.0
sg30
F0.7331094
sg31
F0.7350115
sg32
F0.6787224
sg33
F0.7922641
ssg34
g35
sg36
g37
sg13
S'1'
p44
sg39
g40
sba(iDataStore
Experiment
p45
(dp46
g22
(dp47
g24
F0.6641803
sg25
F0.4025691
sg26
F0.0791767
sg27
F0.3730533
sg28
F0.0
sg29
F0.1391272
sg30
F0.7070529
sg31
F0.7220312
sg32
F0.8045297
sg33
F0.6658928
ssg34
g35
sg36
g37
sg13
S'2'
p48
sg39
g40
sba(iDataStore
Experiment
p49
(dp50
g22
(dp51
g24
F0.1099868
sg25
F0.2836348
sg26
F0.1489169
sg27
F0.0
sg28
F0.6167796
sg29
F0.1071007
sg30
F0.8450825
sg31
F0.5874284
sg32
F0.6342242
sg33
F0.7160394
ssg34
g35
sg36
g37
sg13
S'3'
p52
sg39
g40
sba(iDataStore
Experiment
p53
(dp54
g22
(dp55
g24
F0.5416993
sg25
F0.3271487
sg26
F0.0
sg27
F0.5616994
sg28
F0.4261411
sg29
F0.1364529
sg30
F0.8780137
sg31
F0.7343038
sg32
F0.5681723
sg33
F0.7933364
ssg34
g35
sg36
g37
sg13
S'4'
p56
sg39
g40
sba(iDataStore
Experiment
p57
(dp58
g22
(dp59
g24
F0.4606635
sg25
F0.0
sg26
F0.0947163
sg27
F0.62728
sg28
F0.4614097
sg29
F0.3975987
sg30
F0.6164494
sg31
F0.7374282
sg32
F0.5924707
sg33
F0.7962721
ssg34
g35
sg36
g37
sg13
S'5'
p60
sg39
g40
sba(iDataStore
Experiment
p61
(dp62
g22
(dp63
g24
F0.0
sg25
F0.3024242
sg26
F0.0843933
sg27
F0.2712395
sg28
F0.3150332
sg29
F0.0855962
sg30
F0.6906661
sg31
F0.804104
sg32
F0.7503346
sg33
F0.6355293
ssg34
g35
sg36
g37
sg13
S'6'
p64
sg39
g40
sba(iDataStore
Experiment
p65
(dp66
g22
(dp67
g24
F0.5464286
sg25
F0.6322827
sg26
F0.1194226
sg27
F0.6637898
sg28
F0.3753798
sg29
F0.2786197
sg30
F0.7996258
sg31
F0.7722994
sg32
F0.0
sg33
F0.6917469
ssg34
g35
sg36
g37
sg13
S'7'
p68
sg39
g40
sba(iDataStore
Experiment
p69
(dp70
g22
(dp71
g24
F0.6929004
sg25
F0.2983418
sg26
F0.1357722
sg27
F0.3983948
sg28
F0.2351013
sg29
F0.122301
sg30
F0.7928387
sg31
F0.0
sg32
F0.7674369
sg33
F0.0362879
ssg34
g35
sg36
g37
sg13
S'8'
p72
sg39
g40
sba(iDataStore
Experiment
p73
(dp74
g22
(dp75
g24
F0.6154742
sg25
F0.33971
sg26
F0.1241278
sg27
F0.3636434
sg28
F0.4215866
sg29
F0.1399857
sg30
F0.7939821
sg31
F0.7247379
sg32
F0.677609
sg33
F0.0
ssg34
g35
sg36
g37
sg13
S'9'
p76
sg39
g40
sbasg34
g35
sS'timeseries_num'
p77
NsS'gene_list'
p78
(lp79
g30
ag29
ag28
ag27
ag26
ag25
ag24
ag32
ag31
ag33
asS'input_files'
p80
(lp81
S'insilico_size10_1_knockouts.tsv'
p82
asbsS'settings'
p83
(dp84
S'inferelator'
p85
(dp86
S'datafiles'
p87
S'data/waffles.txt data/testing.txt'
p88
sS'config'
p89
S'config/tlclr_testing.cfg'
p90
ssS'genie3'
p91
(dp92
S'config'
p93
S'config/genie3_testing.cfg'
p94
ssS'inferelator-pipeline'
p95
(dp96
S'config'
p97
S'config/inferelator-pipeline.cfg'
p98
ssS'cmonkey'
p99
(dp100
S'config'
p101
S'config/cmonkey_testing.cfg'
p102
ssS'tlclr'
p103
(dp104
S'config'
p105
S'config/tlclr_testing.cfg'
p106
ssS'global'
p107
(dp108
S'medium2_network_goldnet_file'
p109
S'datasets/20Gene_Network2/Ecoli-20Genes-6Reg-3_goldstandard.tsv'
p110
sS'dream410_3_network_wildtype_file'
p111
S'datasets/DREAM4_InSilico_Size10/insilico_size10_3/insilico_size10_3_wildtype.tsv'
p112
sS'dream4100_5_network_knockdown_file'
p113
S'datasets/DREAM4_InSilico_Size100/insilico_size100_5/insilico_size100_5_knockdowns.tsv'
p114
sS'dream410_network_wildtype_file'
p115
S'datasets/DREAM4_InSilico_Size10/insilico_size10_1/insilico_size10_1_wildtype.tsv'
p116
sS'medium2_network_delta_t'
p117
I50
sS'dream4100_2_network_timeseries_file'
p118
S'datasets/DREAM4_InSilico_Size100/insilico_size100_2/insilico_size100_2_timeseries.tsv'
p119
sS'medium_network_wildtype_file'
p120
S'datasets/20Gene_Network/Ecoli-20Genes-6Reg-2_wildtype.tsv'
p121
sS'dream4100_network_goldnet_file'
p122
S'datasets/DREAM4_InSilico_Size100/insilico_size100_1/DREAM4_GoldStandard_InSilico_Size100_1.tsv'
p123
sS'dream4100_4_network_multifactorial_file'
p124
S'datasets/DREAM4_InSilico_Size100/insilico_size100_4/insilico_size100_4_multifactorial.tsv'
p125
sS'large_network_knockout_file'
p126
S'datasets/Large_Network/Ecoli-1_knockouts.tsv'
p127
sS'ecoli400_timeseries_file'
p128
S'datasets/Ecoli-400/Ecoli-400-1_dream4_timeseries.tsv'
p129
sS'small_network_multifactorial_file'
p130
S'datasets/Small_Network/Ecoli-1_multifactorial.tsv'
p131
sS'dream410_4_network_knockdown_file'
p132
S'datasets/DREAM4_InSilico_Size10/insilico_size10_4/insilico_size10_4_knockdowns.tsv'
p133
sS'dream410_5_network_wildtype_file'
p134
S'datasets/DREAM4_InSilico_Size10/insilico_size10_5/insilico_size10_5_wildtype.tsv'
p135
sS'dream4100_network_delta_t'
p136
I50
sS'dream4100_1000tp_network_knockout_file'
p137
S'datasets/DREAM4_100_1000TP/insilico_size100_1_knockouts.tsv'
p138
sS'tflist'
p139
S'ArabGeneTFNames.csv'
p140
sS'large_network_knockdown_file'
p141
S'datasets/Large_Network/Ecoli-1_knockdowns.tsv'
p142
sS'dream410_4_network_wildtype_file'
p143
S'datasets/DREAM4_InSilico_Size10/insilico_size10_4/insilico_size10_4_wildtype.tsv'
p144
sS'medium_network_multifactorial_file'
p145
S'datasets/20Gene_Network/Ecoli-20Genes-6Reg-2_multifactorial.tsv'
p146
sS'dream410_5_network_knockdown_file'
p147
S'datasets/DREAM4_InSilico_Size10/insilico_size10_5/insilico_size10_5_knockdowns.tsv'
p148
sS'dream410_5_network_goldnet_file'
p149
S'datasets/DREAM4_InSilico_Size10/insilico_size10_5/DREAM4_GoldStandard_InSilico_Size10_5.tsv'
p150
sS'dream410_2_network_knockdown_file'
p151
S'datasets/DREAM4_InSilico_Size10/insilico_size10_2/insilico_size10_2_knockdowns.tsv'
p152
sS'template_dir'
p153
S'config/templates/'
p154
sS'dream4100_1000tp_network_delta_t'
p155
I50
sS'dream4100_2_network_goldnet_file'
p156
S'datasets/DREAM4_InSilico_Size100/insilico_size100_2/DREAM4_GoldStandard_InSilico_Size100_2.tsv'
p157
sS'experiment_name'
p158
S'MCZ-BOOKFINAL-dream410'
p159
sS'dream410_4_network_multifactorial_file'
p160
S'datasets/DREAM4_InSilico_Size10/insilico_size10_4/insilico_size10_4_multifactorial.tsv'
p161
sS'dream410_network_timeseries_file'
p162
S'datasets/DREAM4_InSilico_Size10/insilico_size10_1/insilico_size10_1_timeseries.tsv'
p163
sS'dream410_1000tp_network_wildtype_file'
p164
S'datasets/DREAM4_10_1000TP/insilico_size10_1_wildtype.tsv'
p165
sS'dream4100_1000tp_network_goldnet_file'
p166
S'datasets/DREAM4_InSilico_Size100/insilico_size100_1/DREAM4_GoldStandard_InSilico_Size100_1.tsv'
p167
sS'dream4100_network_knockdown_file'
p168
S'datasets/DREAM4_InSilico_Size100/insilico_size100_1/insilico_size100_1_knockdowns.tsv'
p169
sS'dream4100_network_wildtype_file'
p170
S'datasets/DREAM4_InSilico_Size100/insilico_size100_1/insilico_size100_1_wildtype.tsv'
p171
sS'dream4100_3_network_multifactorial_file'
p172
S'datasets/DREAM4_InSilico_Size100/insilico_size100_3/insilico_size100_3_multifactorial.tsv'
p173
sS'n_processors'
p174
I4
sS'dream4100_3_network_knockdown_file'
p175
S'datasets/DREAM4_InSilico_Size100/insilico_size100_3/insilico_size100_3_knockdowns.tsv'
p176
sS'medium2_network_timeseries_file'
p177
S'datasets/20Gene_Network2/Ecoli-20Genes-6Reg-3_dream4_timeseries.tsv'
p178
sS'dream410_4_network_delta_t'
p179
I50
sS'dream4100_5_network_delta_t'
p180
I50
sS'dream4100_5_network_multifactorial_file'
p181
S'datasets/DREAM4_InSilico_Size100/insilico_size100_5/insilico_size100_5_multifactorial.tsv'
p182
sS'dream410_1000tp_network_knockdown_file'
p183
S'datasets/DREAM4_10_1000TP/insilico_size10_1_knockdowns.tsv'
p184
sS'dream4100_network_knockout_file'
p185
S'datasets/DREAM4_InSilico_Size100/insilico_size100_1/insilico_size100_1_knockouts.tsv'
p186
sS'log_dir'
p187
S'output/logs/'
p188
sS'dream4100_4_network_wildtype_file'
p189
S'datasets/DREAM4_InSilico_Size100/insilico_size100_4/insilico_size100_4_wildtype.tsv'
p190
sS'dream4100_4_network_timeseries_file'
p191
S'datasets/DREAM4_InSilico_Size100/insilico_size100_4/insilico_size100_4_timeseries.tsv'
p192
sS'steady_state_files'
p193
S'550ath.ratios.fix'
p194
sS'medium_network_delta_t'
p195
I50
sS'ecoli400_wildtype_file'
p196
S'datasets/Ecoli-400/Ecoli-400-1_wildtype.tsv'
p197
sS'dream410_network_goldnet_file'
p198
S'datasets/DREAM4_InSilico_Size10/insilico_size10_1/DREAM4_GoldStandard_InSilico_Size10_1.tsv'
p199
sS'dream410_4_network_timeseries_file'
p200
S'datasets/DREAM4_InSilico_Size10/insilico_size10_4/insilico_size10_4_timeseries.tsv'
p201
sS'dream4100_3_network_timeseries_file'
p202
S'datasets/DREAM4_InSilico_Size100/insilico_size100_3/insilico_size100_3_timeseries.tsv'
p203
sS'large_network_delta_t'
p204
I30
sS'dream410_1000tp_network_knockout_file'
p205
S'datasets/DREAM4_10_1000TP/insilico_size10_1_knockouts.tsv'
p206
sS'medium2_network_wildtype_file'
p207
S'datasets/20Gene_Network2/Ecoli-20Genes-6Reg-3_wildtype.tsv'
p208
sS'dream4100_5_network_timeseries_file'
p209
S'datasets/DREAM4_InSilico_Size100/insilico_size100_5/insilico_size100_5_timeseries.tsv'
p210
sS'ecoli400_goldnet_file'
p211
S'datasets/Ecoli-400/Ecoli-400-1_goldstandard.tsv'
p212
sS'dream4100_network_multifactorial_file'
p213
S'datasets/DREAM4_InSilico_Size100/insilico_size100_1/insilico_size100_1_multifactorial.tsv'
p214
sS'dream410_2_network_wildtype_file'
p215
S'datasets/DREAM4_InSilico_Size10/insilico_size10_2/insilico_size10_2_wildtype.tsv'
p216
sS'dream410_5_network_timeseries_file'
p217
S'datasets/DREAM4_InSilico_Size10/insilico_size10_5/insilico_size10_5_timeseries.tsv'
p218
sS'small_network_knockdown_file'
p219
S'datasets/Small_Network/Ecoli-1_knockdowns.tsv'
p220
sS'dream410_network_knockout_file'
p221
g40
sS'dream410_3_network_goldnet_file'
p222
S'datasets/DREAM4_InSilico_Size10/insilico_size10_3/DREAM4_GoldStandard_InSilico_Size10_3.tsv'
p223
sS'medium_network_knockdown_file'
p224
S'datasets/20Gene_Network/Ecoli-20Genes-6Reg-2_knockdowns.tsv'
p225
sS'dream410_4_network_knockout_file'
p226
S'datasets/DREAM4_InSilico_Size10/insilico_size10_4/insilico_size10_4_knockouts.tsv'
p227
sS'dream4100_2_network_wildtype_file'
p228
S'datasets/DREAM4_InSilico_Size100/insilico_size100_2/insilico_size100_2_wildtype.tsv'
p229
sS'dream410_1000tp_network_timeseries_file'
p230
S'datasets/DREAM4_10_1000TP/insilico_size10_1_timeseries.tsv'
p231
sS'dream410_network_delta_t'
p232
I50
sS'ecoli400_knockout_file'
p233
S'datasets/Ecoli-400/Ecoli-400-1_knockouts.tsv'
p234
sS'dream4100_3_network_knockout_file'
p235
S'datasets/DREAM4_InSilico_Size100/insilico_size100_3/insilico_size100_3_knockouts.tsv'
p236
sS'dream4100_1000tp_network_multifactorial_file'
p237
S'datasets/DREAM4_100_1000TP/insilico_size100_1_multifactorial.tsv'
p238
sS'dream410_2_network_goldnet_file'
p239
S'datasets/DREAM4_InSilico_Size10/insilico_size10_2/DREAM4_GoldStandard_InSilico_Size10_2.tsv'
p240
sS'small_network_wildtype_file'
p241
S'datasets/Small_Network/Ecoli-1_wildtype.tsv'
p242
sS'dream4100_2_network_delta_t'
p243
I50
sS'medium_network_timeseries_file'
p244
S'datasets/20Gene_Network/Ecoli-20Genes-6Reg-2_dream4_timeseries.tsv'
p245
sS'dream410_5_network_knockout_file'
p246
S'datasets/DREAM4_InSilico_Size10/insilico_size10_5/insilico_size10_5_knockouts.tsv'
p247
sS'dream410_2_network_knockout_file'
p248
S'datasets/DREAM4_InSilico_Size10/insilico_size10_2/insilico_size10_2_knockouts.tsv'
p249
sS'dream410_2_network_timeseries_file'
p250
S'datasets/DREAM4_InSilico_Size10/insilico_size10_2/insilico_size10_2_timeseries.tsv'
p251
sS'dream4100_3_network_delta_t'
p252
I50
sS'use_cluster'
p253
S'False'
p254
sS'large_network_timeseries_file'
p255
S'datasets/Large_Network/Ecoli-1_dream4_timeseries.tsv'
p256
sS'dream410_3_network_knockdown_file'
p257
S'datasets/DREAM4_InSilico_Size10/insilico_size10_3/insilico_size10_3_knockdowns.tsv'
p258
sS'dream410_2_network_delta_t'
p259
I50
sS'medium2_network_knockout_file'
p260
S'datasets/20Gene_Network2/Ecoli-20Genes-6Reg-3_knockouts.tsv'
p261
sS'dream4100_3_network_wildtype_file'
p262
S'datasets/DREAM4_InSilico_Size100/insilico_size100_3/insilico_size100_3_wildtype.tsv'
p263
sS'dream410_3_network_timeseries_file'
p264
S'datasets/DREAM4_InSilico_Size10/insilico_size10_3/insilico_size10_3_timeseries.tsv'
p265
sS'small_network_goldnet_file'
p266
S'datasets/Small_Network/Ecoli-1_goldstandard.tsv'
p267
sS'small_network_delta_t'
p268
I30
sS'dream4100_5_network_wildtype_file'
p269
S'datasets/DREAM4_InSilico_Size100/insilico_size100_5/insilico_size100_5_wildtype.tsv'
p270
sS'dream410_3_network_knockout_file'
p271
S'datasets/DREAM4_InSilico_Size10/insilico_size10_3/insilico_size10_3_knockouts.tsv'
p272
sS'dream410_network_knockdown_file'
p273
S'datasets/DREAM4_InSilico_Size10/insilico_size10_1/insilico_size10_1_knockdowns.tsv'
p274
sS'dream410_3_network_delta_t'
p275
I50
sS'dream4100_network_timeseries_file'
p276
S'datasets/DREAM4_InSilico_Size100/insilico_size100_1/insilico_size100_1_timeseries.tsv'
p277
sS'dream4100_1000tp_network_wildtype_file'
p278
S'datasets/DREAM4_100_1000TP/insilico_size100_1_wildtype.tsv'
p279
sS'dream410_1000tp_network_goldnet_file'
p280
S'datasets/DREAM4_InSilico_Size10/insilico_size10_1/DREAM4_GoldStandard_InSilico_Size10_1.tsv'
p281
sS'large_network_multifactorial_file'
p282
S'datasets/Large_Network/Ecoli-1_multifactorial.tsv'
p283
sS'dream4100_1000tp_network_knockdown_file'
p284
S'datasets/DREAM4_100_1000TP/insilico_size100_1_knockdowns.tsv'
p285
sS'large_network_wildtype_file'
p286
S'datasets/Large_Network/Ecoli-1_wildtype.tsv'
p287
sS'ecoli400_multifactorial_file'
p288
S'datasets/Ecoli-400/Ecoli-400-1_multifactorial.tsv'
p289
sS'dream410_network_multifactorial_file'
p290
S'datasets/DREAM4_InSilico_Size10/insilico_size10_1/insilico_size10_1_multifactorial.tsv'
p291
sS'small_network_knockout_file'
p292
S'datasets/Small_Network/Ecoli-1_knockouts.tsv'
p293
sS'dream4100_4_network_knockout_file'
p294
S'datasets/DREAM4_InSilico_Size100/insilico_size100_4/insilico_size100_4_knockouts.tsv'
p295
sS'matlab_path'
p296
S'matlab -nodesktop -nodisplay -nosplash -r'
p297
sS'dream410_4_network_goldnet_file'
p298
S'datasets/DREAM4_InSilico_Size10/insilico_size10_4/DREAM4_GoldStandard_InSilico_Size10_4.tsv'
p299
sS'dream4100_2_network_multifactorial_file'
p300
S'datasets/DREAM4_InSilico_Size100/insilico_size100_2/insilico_size100_2_multifactorial.tsv'
p301
sS'ecoli400_knockdown_file'
p302
S'datasets/Ecoli-400/Ecoli-400-1_knockdowns.tsv'
p303
sS'dream4100_3_network_goldnet_file'
p304
S'datasets/DREAM4_InSilico_Size100/insilico_size100_3/DREAM4_GoldStandard_InSilico_Size100_3.tsv'
p305
sS'time_series_delta_t'
p306
I50
sS'dream4100_1000tp_network_timeseries_file'
p307
S'datasets/DREAM4_100_1000TP/insilico_size100_1_timeseries.tsv'
p308
sS'medium_network_goldnet_file'
p309
S'datasets/20Gene_Network/Ecoli-20Genes-6Reg-2_goldstandard.tsv'
p310
sS'dream4100_4_network_goldnet_file'
p311
S'datasets/DREAM4_InSilico_Size100/insilico_size100_4/DREAM4_GoldStandard_InSilico_Size100_4.tsv'
p312
sS'large_network_goldnet_file'
p313
S'datasets/Large_Network/Ecoli-1_goldstandard.tsv'
p314
sS'working_dir'
p315
S'/home/netinf/NetInfJacGithubOct1714/Network-Inference-Workspace/'
p316
sS'output_dir'
p317
S'output//MCZ-BOOKFINAL-dream410-2014-10-17_15.16.56/'
p318
sS'medium2_network_knockdown_file'
p319
S'datasets/20Gene_Network2/Ecoli-20Genes-6Reg-3_knockdowns.tsv'
p320
sS'time_series_files'
p321
S'datasets/dream4_10/dream4_ts.tsv'
p322
sS'dream4100_5_network_knockout_file'
p323
S'datasets/DREAM4_InSilico_Size100/insilico_size100_5/insilico_size100_5_knockouts.tsv'
p324
sS'dream410_3_network_multifactorial_file'
p325
S'datasets/DREAM4_InSilico_Size10/insilico_size10_3/insilico_size10_3_multifactorial.tsv'
p326
sS'dream4100_2_network_knockout_file'
p327
S'datasets/DREAM4_InSilico_Size100/insilico_size100_2/insilico_size100_2_knockouts.tsv'
p328
sS'dream410_1000tp_network_multifactorial_file'
p329
S'datasets/DREAM4_10_1000TP/insilico_size10_1_multifactorial.tsv'
p330
sS'dream410_5_network_delta_t'
p331
I50
sS'dream4100_5_network_goldnet_file'
p332
S'datasets/DREAM4_InSilico_Size100/insilico_size100_5/DREAM4_GoldStandard_InSilico_Size100_5.tsv'
p333
sS'small_network_timeseries_file'
p334
S'datasets/Small_Network/Ecoli-1_dream4_timeseries.tsv'
p335
sS'dream410_2_network_multifactorial_file'
p336
S'datasets/DREAM4_InSilico_Size10/insilico_size10_2/insilico_size10_2_multifactorial.tsv'
p337
sS'dream4100_4_network_knockdown_file'
p338
S'datasets/DREAM4_InSilico_Size100/insilico_size100_4/insilico_size100_4_knockdowns.tsv'
p339
sS'medium_network_knockout_file'
p340
S'datasets/20Gene_Network/Ecoli-20Genes-6Reg-2_knockouts.tsv'
p341
sS'ecoli400_delta_t'
p342
I50
sS'medium2_network_multifactorial_file'
p343
S'datasets/20Gene_Network2/Ecoli-20Genes-6Reg-3_multifactorial.tsv'
p344
sS'dream4100_2_network_knockdown_file'
p345
S'datasets/DREAM4_InSilico_Size100/insilico_size100_2/insilico_size100_2_knockdowns.tsv'
p346
sS'dream4100_4_network_delta_t'
p347
I50
sS'dream410_1000tp_network_delta_t'
p348
I50
sS'dream410_5_network_multifactorial_file'
p349
S'datasets/DREAM4_InSilico_Size10/insilico_size10_5/insilico_size10_5_multifactorial.tsv'
p350
ssS'mcz'
p351
(dp352
g11
g12
sg13
g14
sg35
S'/home/netinf/NetInfJacGithubOct1714/Network-Inference-Workspace/output//MCZ-BOOKFINAL-dream410-2014-10-17_15.16.56//MCZ//data//insilico_size10_1_knockouts.tsv'
p353
sS'working_dir_config'
p354
S'/home/netinf/NetInfJacGithubOct1714/Network-Inference-Workspace/output//MCZ-BOOKFINAL-dream410-2014-10-17_15.16.56//MCZ//mcz_program/mcz_config.cfg'
p355
sS'tzero'
p356
S'/home/netinf/NetInfJacGithubOct1714/Network-Inference-Workspace/output//MCZ-BOOKFINAL-dream410-2014-10-17_15.16.56//MCZ//data//TimeZeros.tsv'
p357
sS'other'
p358
S'/home/netinf/NetInfJacGithubOct1714/Network-Inference-Workspace/output//MCZ-BOOKFINAL-dream410-2014-10-17_15.16.56//MCZ//data//insilico_size10_1_knockdowns.tsv'
p359
sS'output_dir'
p360
S'/home/netinf/NetInfJacGithubOct1714/Network-Inference-Workspace/output//MCZ-BOOKFINAL-dream410-2014-10-17_15.16.56//MCZ/'
p361
sS'path'
p362
S'algorithms/mcz/'
p363
sS'file_ext'
p364
S'py'
p365
sS'config'
p366
S'config/mcz_testing.cfg'
p367
sS'wildtype'
p368
S'/home/netinf/NetInfJacGithubOct1714/Network-Inference-Workspace/output//MCZ-BOOKFINAL-dream410-2014-10-17_15.16.56//MCZ//data//insilico_size10_1_wildtype.tsv'
p369
sS'top_n_edges'
p370
I15
sS'log_dir'
p371
S'/home/netinf/NetInfJacGithubOct1714/Network-Inference-Workspace/output//MCZ-BOOKFINAL-dream410-2014-10-17_15.16.56//MCZ//log/'
p372
ssS'nirest'
p373
(dp374
S'restk'
p375
I10
sS'ratio_files'
p376
S'datasets/dream4_10/dream4_ts.tsv'
p377
sS'topd'
p378
I5
sS'config'
p379
S'config/nirest_testing.cfg'
p380
ssS'nir'
p381
(dp382
S'config'
p383
S'config/nir_testing.cfg'
p384
ssS'banjo'
p385
(dp386
S'num_genes'
p387
I10
sS'config'
p388
S'config/banjo_testing.cfg'
p389
ssS'dfg4grn'
p390
(dp391
S'cluster_expname'
p392
S'testing'
p393
sS'tau'
p394
I10
sS'lambda_w'
p395
I2
sS'cluster_procs'
p396
I1
sS'tau_range'
p397
(lp398
I1
aI3
asS'cluster_email'
p399
S'jml654@nyu.edu'
p400
sS'eta_z'
p401
I3
sS'eta_z_range'
p402
(lp403
F0.0001
aF0.1
asS'lambda_w_range'
p404
(lp405
F0.001
aF0.2
asS'cluster_priority'
p406
I1
sS'cluster_nodes'
p407
I1
sS'path'
p408
S'algorithms/dfg4grn/'
p409
sS'config'
p410
S'config/dfg4grn_testing.cfg'
p411
sS'cluster_username'
p412
S'jml654'
p413
ssS'clr'
p414
(dp415
S'config'
p416
S'config/clr_testing.cfg'
p417
ssS'inferelator2'
p418
(dp419
S'config'
p420
S'config/inferelator2_testing.cfg'
p421
sssS'ts_storage'
p422
(lp423
(iDataStore
MicroarrayData
p424
(dp425
g18
(lp426
(iDataStore
Experiment
p427
(dp428
g22
(dp429
S'G7'
p430
F0.6067846
sS'G6'
p431
F0.275493
sS'G5'
p432
F0.1004299
sS'G4'
p433
F0.7745716
sS'G3'
p434
F0.3550646
sS'G2'
p435
F0.1272186
sS'G1'
p436
F0.6665114
sS'G9'
p437
F0.6656366
sS'G8'
p438
F0.7430983
sS'G10'
p439
F0.6950638
ssg34
S'timeseries'
p440
sg36
g37
sg13
S'0.0'
p441
sg39
S'Timeseries-Rep4'
p442
sba(iDataStore
Experiment
p443
(dp444
g22
(dp445
g430
F0.6096963
sg431
F0.3107637
sg432
F0.1924591
sg433
F0.7229108
sg434
F0.3464115
sg435
F0.1218223
sg436
F0.3257748
sg437
F0.5554138
sg438
F0.7567515
sg439
F0.7327167
ssg34
g440
sg36
g37
sg13
S'50.0'
p446
sg39
g442
sba(iDataStore
Experiment
p447
(dp448
g22
(dp449
g430
F0.4647324
sg431
F0.3569736
sg432
F0.2333497
sg433
F0.586828
sg434
F0.5712888
sg435
F0.0443587
sg436
F0.1775012
sg437
F0.7211032
sg438
F0.6656993
sg439
F0.6717156
ssg34
g440
sg36
g37
sg13
S'100.0'
p450
sg39
g442
sba(iDataStore
Experiment
p451
(dp452
g22
(dp453
g430
F0.4200074
sg431
F0.3375671
sg432
F0.40451
sg433
F0.6338205
sg434
F0.4849771
sg435
F0.0615354
sg436
F0.1838851
sg437
F0.6402268
sg438
F0.7324089
sg439
F0.6970434
ssg34
g440
sg36
g37
sg13
S'150.0'
p454
sg39
g442
sba(iDataStore
Experiment
p455
(dp456
g22
(dp457
g430
F0.4145393
sg431
F0.2994227
sg432
F0.5583316
sg433
F0.5354375
sg434
F0.3435551
sg435
F0.1398431
sg436
F0.0930693
sg437
F0.5478739
sg438
F0.6771472
sg439
F0.7512751
ssg34
g440
sg36
g37
sg13
S'200.0'
p458
sg39
g442
sba(iDataStore
Experiment
p459
(dp460
g22
(dp461
g430
F0.5788573
sg431
F0.3676576
sg432
F0.6429076
sg433
F0.5255509
sg434
F0.3124305
sg435
F0.0886361
sg436
F0.0653015
sg437
F0.5983088
sg438
F0.8026375
sg439
F0.6088625
ssg34
g440
sg36
g37
sg13
S'250.0'
p462
sg39
g442
sba(iDataStore
Experiment
p463
(dp464
g22
(dp465
g430
F0.5993621
sg431
F0.2992928
sg432
F0.5350145
sg433
F0.4599706
sg434
F0.4126412
sg435
F0.094808
sg436
F0.1502136
sg437
F0.7288696
sg438
F0.6181808
sg439
F0.6660468
ssg34
g440
sg36
g37
sg13
S'300.0'
p466
sg39
g442
sba(iDataStore
Experiment
p467
(dp468
g22
(dp469
g430
F0.6775364
sg431
F0.3430145
sg432
F0.5641511
sg433
F0.4214017
sg434
F0.3764574
sg435
F0.090451
sg436
F0.0913323
sg437
F0.7736935
sg438
F0.5235399
sg439
F0.7443968
ssg34
g440
sg36
g37
sg13
S'350.0'
p470
sg39
g442
sba(iDataStore
Experiment
p471
(dp472
g22
(dp473
g430
F0.5142803
sg431
F0.2333228
sg432
F0.6718907
sg433
F0.5030134
sg434
F0.5188737
sg435
F0.1182462
sg436
F0.1358562
sg437
F0.6843619
sg438
F0.6087675
sg439
F0.836531
ssg34
g440
sg36
g37
sg13
S'400.0'
p474
sg39
g442
sba(iDataStore
Experiment
p475
(dp476
g22
(dp477
g430
F0.499568
sg431
F0.3815948
sg432
F0.6740419
sg433
F0.4831358
sg434
F0.3768678
sg435
F0.0765614
sg436
F0.1667014
sg437
F0.7486546
sg438
F0.5959077
sg439
F0.7173045
ssg34
g440
sg36
g37
sg13
S'450.0'
p478
sg39
g442
sba(iDataStore
Experiment
p479
(dp480
g22
(dp481
g430
F0.5091151
sg431
F0.3344889
sg432
F0.7354699
sg433
F0.5403027
sg434
F0.4322347
sg435
F0.075504
sg436
F0.1170103
sg437
F0.6725776
sg438
F0.7152812
sg439
F0.6325963
ssg34
g440
sg36
g37
sg13
S'500.0'
p482
sg39
g442
sba(iDataStore
Experiment
p483
(dp484
g22
(dp485
g430
F0.4479249
sg431
F0.358515
sg432
F0.485255
sg433
F0.618386
sg434
F0.3453156
sg435
F0.093721
sg436
F0.4708819
sg437
F0.7919255
sg438
F0.7052075
sg439
F0.5868152
ssg34
g440
sg36
g37
sg13
S'550.0'
p486
sg39
g442
sba(iDataStore
Experiment
p487
(dp488
g22
(dp489
g430
F0.4196698
sg431
F0.3239021
sg432
F0.3257959
sg433
F0.6233838
sg434
F0.4763379
sg435
F0.1443166
sg436
F0.5545089
sg437
F0.5791635
sg438
F0.72992
sg439
F0.6029599
ssg34
g440
sg36
g37
sg13
S'600.0'
p490
sg39
g442
sba(iDataStore
Experiment
p491
(dp492
g22
(dp493
g430
F0.4524902
sg431
F0.2928635
sg432
F0.2634359
sg433
F0.6429242
sg434
F0.352766
sg435
F0.1580246
sg436
F0.5717737
sg437
F0.6633159
sg438
F0.7210641
sg439
F0.6927663
ssg34
g440
sg36
g37
sg13
S'650.0'
p494
sg39
g442
sba(iDataStore
Experiment
p495
(dp496
g22
(dp497
g430
F0.6356541
sg431
F0.304971
sg432
F0.1906673
sg433
F0.7448212
sg434
F0.3817925
sg435
F0.0906398
sg436
F0.6437458
sg437
F0.8094115
sg438
F0.6836201
sg439
F0.7286575
ssg34
g440
sg36
g37
sg13
S'700.0'
p498
sg39
g442
sba(iDataStore
Experiment
p499
(dp500
g22
(dp501
g430
F0.5680143
sg431
F0.2934906
sg432
F0.1278089
sg433
F0.6477586
sg434
F0.4025808
sg435
F0.0959292
sg436
F0.6988616
sg437
F0.6819686
sg438
F0.7435989
sg439
F0.8213812
ssg34
g440
sg36
g37
sg13
S'750.0'
p502
sg39
g442
sba(iDataStore
Experiment
p503
(dp504
g22
(dp505
g430
F0.5652458
sg431
F0.3429125
sg432
F0.1340147
sg433
F0.7884273
sg434
F0.3520098
sg435
F0.1251139
sg436
F0.6002293
sg437
F0.7548764
sg438
F0.6701132
sg439
F0.6814079
ssg34
g440
sg36
g37
sg13
S'800.0'
p506
sg39
g442
sba(iDataStore
Experiment
p507
(dp508
g22
(dp509
g430
F0.3950302
sg431
F0.3146772
sg432
F0.1391781
sg433
F0.7086632
sg434
F0.4541817
sg435
F0.0985328
sg436
F0.751684
sg437
F0.6583495
sg438
F0.6562918
sg439
F0.6836276
ssg34
g440
sg36
g37
sg13
S'850.0'
p510
sg39
g442
sba(iDataStore
Experiment
p511
(dp512
g22
(dp513
g430
F0.4627621
sg431
F0.330916
sg432
F0.0960015
sg433
F0.700968
sg434
F0.4254553
sg435
F0.0823597
sg436
F0.705819
sg437
F0.6866225
sg438
F0.661009
sg439
F0.7453896
ssg34
g440
sg36
g37
sg13
S'900.0'
p514
sg39
g442
sba(iDataStore
Experiment
p515
(dp516
g22
(dp517
g430
F0.5903798
sg431
F0.3386791
sg432
F0.1389801
sg433
F0.6602306
sg434
F0.3168437
sg435
F0.113119
sg436
F0.6863142
sg437
F0.700166
sg438
F0.6151949
sg439
F0.645072
ssg34
g440
sg36
g37
sg13
S'950.0'
p518
sg39
g442
sba(iDataStore
Experiment
p519
(dp520
g22
(dp521
g430
F0.593867
sg431
F0.2846131
sg432
F0.1181666
sg433
F0.6695402
sg434
F0.3340166
sg435
F0.0780578
sg436
F0.6785873
sg437
F0.7702145
sg438
F0.6823825
sg439
F0.6068127
ssg34
g440
sg36
g37
sg13
S'1000.0'
p522
sg39
g442
sbasg34
g440
sg77
Nsg78
(lp523
g436
ag435
ag434
ag433
ag432
ag431
ag430
ag438
ag437
ag439
asg80
(lp524
S'Timeseries-Rep0'
p525
asba(iDataStore
MicroarrayData
p526
(dp527
g18
(lp528
(iDataStore
Experiment
p529
(dp530
g22
(dp531
g430
F0.5905584
sg431
F0.2494241
sg432
F0.1445523
sg433
F0.5990709
sg434
F0.3080785
sg435
F0.1735119
sg436
F0.6927804
sg437
F0.6891143
sg438
F0.636797
sg439
F0.6944974
ssg34
g440
sg36
g37
sg13
S'0.0'
p532
sg39
g442
sba(iDataStore
Experiment
p533
(dp534
g22
(dp535
g430
F0.2199619
sg431
F0.3952169
sg432
F0.2136285
sg433
F0.6576991
sg434
F0.2815777
sg435
F0.0954328
sg436
F0.6137
sg437
F0.684341
sg438
F0.5711943
sg439
F0.6816443
ssg34
g440
sg36
g37
sg13
S'50.0'
p536
sg39
g442
sba(iDataStore
Experiment
p537
(dp538
g22
(dp539
g430
F0.1706594
sg431
F0.3336192
sg432
F0.2556762
sg433
F0.6349119
sg434
F0.2896261
sg435
F0.0704157
sg436
F0.5923916
sg437
F0.6408686
sg438
F0.7645988
sg439
F0.6201303
ssg34
g440
sg36
g37
sg13
S'100.0'
p540
sg39
g442
sba(iDataStore
Experiment
p541
(dp542
g22
(dp543
g430
F0.1213159
sg431
F0.3849495
sg432
F0.1315485
sg433
F0.5846269
sg434
F0.1935983
sg435
F0.0880437
sg436
F0.5868361
sg437
F0.8166294
sg438
F0.7072442
sg439
F0.7047542
ssg34
g440
sg36
g37
sg13
S'150.0'
p544
sg39
g442
sba(iDataStore
Experiment
p545
(dp546
g22
(dp547
g430
F0.0786808
sg431
F0.3736593
sg432
F0.1687147
sg433
F0.4509727
sg434
F0.2186433
sg435
F0.1149911
sg436
F0.6293309
sg437
F0.803821
sg438
F0.6970827
sg439
F0.6925731
ssg34
g440
sg36
g37
sg13
S'200.0'
p548
sg39
g442
sba(iDataStore
Experiment
p549
(dp550
g22
(dp551
g430
F0.1242939
sg431
F0.3834565
sg432
F0.1772348
sg433
F0.4333604
sg434
F0.2137598
sg435
F0.0990501
sg436
F0.5170203
sg437
F0.7563581
sg438
F0.7901656
sg439
F0.7286596
ssg34
g440
sg36
g37
sg13
S'250.0'
p552
sg39
g442
sba(iDataStore
Experiment
p553
(dp554
g22
(dp555
g430
F0.1323223
sg431
F0.4000143
sg432
F0.2365102
sg433
F0.3898388
sg434
F0.289219
sg435
F0.1159865
sg436
F0.4709636
sg437
F0.7090849
sg438
F0.6791003
sg439
F0.824954
ssg34
g440
sg36
g37
sg13
S'300.0'
p556
sg39
g442
sba(iDataStore
Experiment
p557
(dp558
g22
(dp559
g430
F0.0792747
sg431
F0.3912156
sg432
F0.2065817
sg433
F0.4384157
sg434
F0.2997476
sg435
F0.080276
sg436
F0.6269998
sg437
F0.664113
sg438
F0.6322451
sg439
F0.7280306
ssg34
g440
sg36
g37
sg13
S'350.0'
p560
sg39
g442
sba(iDataStore
Experiment
p561
(dp562
g22
(dp563
g430
F0.1492018
sg431
F0.2349554
sg432
F0.1484264
sg433
F0.3779466
sg434
F0.2573068
sg435
F0.1042932
sg436
F0.5284701
sg437
F0.7596715
sg438
F0.792832
sg439
F0.7133538
ssg34
g440
sg36
g37
sg13
S'400.0'
p564
sg39
g442
sba(iDataStore
Experiment
p565
(dp566
g22
(dp567
g430
F0.1158488
sg431
F0.4213528
sg432
F0.1235777
sg433
F0.3494604
sg434
F0.2196169
sg435
F0.1482319
sg436
F0.5110939
sg437
F0.7145425
sg438
F0.674044
sg439
F0.7374688
ssg34
g440
sg36
g37
sg13
S'450.0'
p568
sg39
g442
sba(iDataStore
Experiment
p569
(dp570
g22
(dp571
g430
F0.1350158
sg431
F0.4517705
sg432
F0.2365731
sg433
F0.4211469
sg434
F0.3025012
sg435
F0.1153365
sg436
F0.4882966
sg437
F0.7176833
sg438
F0.6484841
sg439
F0.6872276
ssg34
g440
sg36
g37
sg13
S'500.0'
p572
sg39
g442
sba(iDataStore
Experiment
p573
(dp574
g22
(dp575
g430
F0.6042338
sg431
F0.307568
sg432
F0.2487479
sg433
F0.4513658
sg434
F0.3245931
sg435
F0.1181288
sg436
F0.6433641
sg437
F0.6728155
sg438
F0.7092563
sg439
F0.6264014
ssg34
g440
sg36
g37
sg13
S'550.0'
p576
sg39
g442
sba(iDataStore
Experiment
p577
(dp578
g22
(dp579
g430
F0.6519328
sg431
F0.382343
sg432
F0.1447856
sg433
F0.6388667
sg434
F0.3060205
sg435
F0.1228048
sg436
F0.6171846
sg437
F0.8328277
sg438
F0.8569027
sg439
F0.6102972
ssg34
g440
sg36
g37
sg13
S'600.0'
p580
sg39
g442
sba(iDataStore
Experiment
p581
(dp582
g22
(dp583
g430
F0.6791125
sg431
F0.3415498
sg432
F0.1544187
sg433
F0.6134333
sg434
F0.398727
sg435
F0.0804874
sg436
F0.8024419
sg437
F0.6930467
sg438
F0.7222545
sg439
F0.6109138
ssg34
g440
sg36
g37
sg13
S'650.0'
p584
sg39
g442
sba(iDataStore
Experiment
p585
(dp586
g22
(dp587
g430
F0.5099839
sg431
F0.3402294
sg432
F0.1578423
sg433
F0.6801495
sg434
F0.3594883
sg435
F0.0871222
sg436
F0.7804539
sg437
F0.6455296
sg438
F0.7069292
sg439
F0.7232683
ssg34
g440
sg36
g37
sg13
S'700.0'
p588
sg39
g442
sba(iDataStore
Experiment
p589
(dp590
g22
(dp591
g430
F0.5312501
sg431
F0.3014502
sg432
F0.0912002
sg433
F0.6614428
sg434
F0.4407318
sg435
F0.0996338
sg436
F0.8290307
sg437
F0.6898205
sg438
F0.6374457
sg439
F0.5949425
ssg34
g440
sg36
g37
sg13
S'750.0'
p592
sg39
g442
sba(iDataStore
Experiment
p593
(dp594
g22
(dp595
g430
F0.3978822
sg431
F0.3563181
sg432
F0.1013723
sg433
F0.6225854
sg434
F0.3369789
sg435
F0.0988457
sg436
F0.7490433
sg437
F0.7440107
sg438
F0.6009584
sg439
F0.7923625
ssg34
g440
sg36
g37
sg13
S'800.0'
p596
sg39
g442
sba(iDataStore
Experiment
p597
(dp598
g22
(dp599
g430
F0.3892781
sg431
F0.3467893
sg432
F0.1361985
sg433
F0.7599636
sg434
F0.4387776
sg435
F0.0482351
sg436
F0.5887312
sg437
F0.653354
sg438
F0.6715002
sg439
F0.7493886
ssg34
g440
sg36
g37
sg13
S'850.0'
p600
sg39
g442
sba(iDataStore
Experiment
p601
(dp602
g22
(dp603
g430
F0.4222378
sg431
F0.3105481
sg432
F0.168397
sg433
F0.5764897
sg434
F0.3228902
sg435
F0.107808
sg436
F0.6694072
sg437
F0.6421272
sg438
F0.7085699
sg439
F0.6938667
ssg34
g440
sg36
g37
sg13
S'900.0'
p604
sg39
g442
sba(iDataStore
Experiment
p605
(dp606
g22
(dp607
g430
F0.5092373
sg431
F0.2960746
sg432
F0.1180917
sg433
F0.7964334
sg434
F0.2685038
sg435
F0.0819181
sg436
F0.7164183
sg437
F0.6454818
sg438
F0.7121105
sg439
F0.6612289
ssg34
g440
sg36
g37
sg13
S'950.0'
p608
sg39
g442
sba(iDataStore
Experiment
p609
(dp610
g22
(dp611
g430
F0.5376463
sg431
F0.2432311
sg432
F0.1803657
sg433
F0.6352872
sg434
F0.3146458
sg435
F0.119864
sg436
F0.8032117
sg437
F0.6253106
sg438
F0.6763547
sg439
F0.5716938
ssg34
g440
sg36
g37
sg13
S'1000.0'
p612
sg39
g442
sbasg34
g440
sg77
Nsg78
(lp613
g436
ag435
ag434
ag433
ag432
ag431
ag430
ag438
ag437
ag439
asg80
(lp614
S'Timeseries-Rep1'
p615
asba(iDataStore
MicroarrayData
p616
(dp617
g18
(lp618
(iDataStore
Experiment
p619
(dp620
g22
(dp621
g430
F0.5852446
sg431
F0.2777284
sg432
F0.1394119
sg433
F0.6290043
sg434
F0.4955336
sg435
F0.0965407
sg436
F0.7025546
sg437
F0.7189792
sg438
F0.6987308
sg439
F0.6317014
ssg34
g440
sg36
g37
sg13
S'0.0'
p622
sg39
g442
sba(iDataStore
Experiment
p623
(dp624
g22
(dp625
g430
F0.3879914
sg431
F0.3160889
sg432
F0.1601289
sg433
F0.633102
sg434
F0.4120065
sg435
F0.0066399
sg436
F0.2670111
sg437
F0.8405381
sg438
F0.3125419
sg439
F0.7525926
ssg34
g440
sg36
g37
sg13
S'50.0'
p626
sg39
g442
sba(iDataStore
Experiment
p627
(dp628
g22
(dp629
g430
F0.5371867
sg431
F0.4121452
sg432
F0.3527526
sg433
F0.6388113
sg434
F0.3162661
sg435
F0.0002031
sg436
F0.1495577
sg437
F0.7847303
sg438
F0.2207124
sg439
F0.6308077
ssg34
g440
sg36
g37
sg13
S'100.0'
p630
sg39
g442
sba(iDataStore
Experiment
p631
(dp632
g22
(dp633
g430
F0.5854555
sg431
F0.4561672
sg432
F0.5828865
sg433
F0.5332911
sg434
F0.3444491
sg435
F7.26e-05
sg436
F0.1258573
sg437
F0.686476
sg438
F0.164159
sg439
F0.6603441
ssg34
g440
sg36
g37
sg13
S'150.0'
p634
sg39
g442
sba(iDataStore
Experiment
p635
(dp636
g22
(dp637
g430
F0.4715633
sg431
F0.5160537
sg432
F0.6474004
sg433
F0.4870183
sg434
F0.360118
sg435
F0.0007181
sg436
F0.1503708
sg437
F0.7514894
sg438
F0.1138825
sg439
F0.7220521
ssg34
g440
sg36
g37
sg13
S'200.0'
p638
sg39
g442
sba(iDataStore
Experiment
p639
(dp640
g22
(dp641
g430
F0.5616858
sg431
F0.5849437
sg432
F0.5962019
sg433
F0.3816565
sg434
F0.2514869
sg435
F0.0010901
sg436
F0.1147272
sg437
F0.7451011
sg438
F0.0875836
sg439
F0.9215333
ssg34
g440
sg36
g37
sg13
S'250.0'
p642
sg39
g442
sba(iDataStore
Experiment
p643
(dp644
g22
(dp645
g430
F0.5828932
sg431
F0.6962295
sg432
F0.7206053
sg433
F0.402796
sg434
F0.4130228
sg435
F0.0006993
sg436
F0.1136885
sg437
F0.7346484
sg438
F0.1047608
sg439
F0.6120013
ssg34
g440
sg36
g37
sg13
S'300.0'
p646
sg39
g442
sba(iDataStore
Experiment
p647
(dp648
g22
(dp649
g430
F0.5699641
sg431
F0.6188064
sg432
F0.6110892
sg433
F0.4555527
sg434
F0.5144453
sg435
F0.0006402
sg436
F0.1074903
sg437
F0.7260995
sg438
F0.1494655
sg439
F0.7034582
ssg34
g440
sg36
g37
sg13
S'350.0'
p650
sg39
g442
sba(iDataStore
Experiment
p651
(dp652
g22
(dp653
g430
F0.5705248
sg431
F0.634079
sg432
F0.7049432
sg433
F0.4184513
sg434
F0.3046374
sg435
F2.16e-05
sg436
F0.0916218
sg437
F0.7072688
sg438
F0.1345381
sg439
F0.7037104
ssg34
g440
sg36
g37
sg13
S'400.0'
p654
sg39
g442
sba(iDataStore
Experiment
p655
(dp656
g22
(dp657
g430
F0.5182417
sg431
F0.4893698
sg432
F0.6032927
sg433
F0.4398207
sg434
F0.4381759
sg435
F0.0001071
sg436
F0.070437
sg437
F0.7245269
sg438
F0.1445357
sg439
F0.6900767
ssg34
g440
sg36
g37
sg13
S'450.0'
p658
sg39
g442
sba(iDataStore
Experiment
p659
(dp660
g22
(dp661
g430
F0.5254869
sg431
F0.5912179
sg432
F0.6065379
sg433
F0.40814
sg434
F0.4247121
sg435
F2.43e-05
sg436
F0.1084545
sg437
F0.7796607
sg438
F0.1195
sg439
F0.7214128
ssg34
g440
sg36
g37
sg13
S'500.0'
p662
sg39
g442
sba(iDataStore
Experiment
p663
(dp664
g22
(dp665
g430
F0.4837116
sg431
F0.5662445
sg432
F0.6220579
sg433
F0.4666379
sg434
F0.3493963
sg435
F0.1669844
sg436
F0.4934324
sg437
F0.7879295
sg438
F0.5461221
sg439
F0.7344458
ssg34
g440
sg36
g37
sg13
S'550.0'
p666
sg39
g442
sba(iDataStore
Experiment
p667
(dp668
g22
(dp669
g430
F0.5869444
sg431
F0.4739788
sg432
F0.3116094
sg433
F0.5659879
sg434
F0.2905074
sg435
F0.1396843
sg436
F0.6485525
sg437
F0.654988
sg438
F0.6502586
sg439
F0.6450217
ssg34
g440
sg36
g37
sg13
S'600.0'
p670
sg39
g442
sba(iDataStore
Experiment
p671
(dp672
g22
(dp673
g430
F0.5316969
sg431
F0.3214644
sg432
F0.3052366
sg433
F0.5786856
sg434
F0.4188026
sg435
F0.0786818
sg436
F0.7971715
sg437
F0.6432834
sg438
F0.7105375
sg439
F0.7139627
ssg34
g440
sg36
g37
sg13
S'650.0'
p674
sg39
g442
sba(iDataStore
Experiment
p675
(dp676
g22
(dp677
g430
F0.4560579
sg431
F0.3322274
sg432
F0.1586621
sg433
F0.6022758
sg434
F0.4350727
sg435
F0.0780344
sg436
F0.5833888
sg437
F0.6150558
sg438
F0.678798
sg439
F0.7626299
ssg34
g440
sg36
g37
sg13
S'700.0'
p678
sg39
g442
sba(iDataStore
Experiment
p679
(dp680
g22
(dp681
g430
F0.3600829
sg431
F0.3789285
sg432
F0.1446601
sg433
F0.6865068
sg434
F0.3151357
sg435
F0.1123633
sg436
F0.7644667
sg437
F0.7599346
sg438
F0.6422636
sg439
F0.7957661
ssg34
g440
sg36
g37
sg13
S'750.0'
p682
sg39
g442
sba(iDataStore
Experiment
p683
(dp684
g22
(dp685
g430
F0.54599
sg431
F0.3403691
sg432
F0.101536
sg433
F0.6589912
sg434
F0.3121278
sg435
F0.1890966
sg436
F0.7656012
sg437
F0.8074774
sg438
F0.8619677
sg439
F0.7599446
ssg34
g440
sg36
g37
sg13
S'800.0'
p686
sg39
g442
sba(iDataStore
Experiment
p687
(dp688
g22
(dp689
g430
F0.4768284
sg431
F0.3956457
sg432
F0.2198009
sg433
F0.6910229
sg434
F0.463363
sg435
F0.1077332
sg436
F0.6111505
sg437
F0.6190746
sg438
F0.6286063
sg439
F0.6722002
ssg34
g440
sg36
g37
sg13
S'850.0'
p690
sg39
g442
sba(iDataStore
Experiment
p691
(dp692
g22
(dp693
g430
F0.4367724
sg431
F0.3303212
sg432
F0.14834
sg433
F0.6404274
sg434
F0.3130161
sg435
F0.1118654
sg436
F0.6721184
sg437
F0.7121735
sg438
F0.7552463
sg439
F0.6523538
ssg34
g440
sg36
g37
sg13
S'900.0'
p694
sg39
g442
sba(iDataStore
Experiment
p695
(dp696
g22
(dp697
g430
F0.4847003
sg431
F0.3811676
sg432
F0.1128817
sg433
F0.6113299
sg434
F0.333095
sg435
F0.1164068
sg436
F0.6289104
sg437
F0.7135124
sg438
F0.7976182
sg439
F0.7852974
ssg34
g440
sg36
g37
sg13
S'950.0'
p698
sg39
g442
sba(iDataStore
Experiment
p699
(dp700
g22
(dp701
g430
F0.5258812
sg431
F0.3700837
sg432
F0.1406588
sg433
F0.6687344
sg434
F0.3590816
sg435
F0.0879682
sg436
F0.7712319
sg437
F0.7878045
sg438
F0.7604233
sg439
F0.6290981
ssg34
g440
sg36
g37
sg13
S'1000.0'
p702
sg39
g442
sbasg34
g440
sg77
Nsg78
(lp703
g436
ag435
ag434
ag433
ag432
ag431
ag430
ag438
ag437
ag439
asg80
(lp704
S'Timeseries-Rep2'
p705
asba(iDataStore
MicroarrayData
p706
(dp707
g18
(lp708
(iDataStore
Experiment
p709
(dp710
g22
(dp711
g430
F0.3970339
sg431
F0.2432843
sg432
F0.1237001
sg433
F0.7087402
sg434
F0.5393216
sg435
F0.1646974
sg436
F0.7291507
sg437
F0.6285854
sg438
F0.7599215
sg439
F0.6076601
ssg34
g440
sg36
g37
sg13
S'0.0'
p712
sg39
g442
sba(iDataStore
Experiment
p713
(dp714
g22
(dp715
g430
F0.1468781
sg431
F0.4088945
sg432
F0.1012508
sg433
F0.6874071
sg434
F0.3894485
sg435
F0.1803674
sg436
F0.5109302
sg437
F0.4169359
sg438
F0.3528068
sg439
F0.7657149
ssg34
g440
sg36
g37
sg13
S'50.0'
p716
sg39
g442
sba(iDataStore
Experiment
p717
(dp718
g22
(dp719
g430
F0.0264118
sg431
F0.4252275
sg432
F0.1486603
sg433
F0.5980135
sg434
F0.2565762
sg435
F0.1875477
sg436
F0.6097374
sg437
F0.4086711
sg438
F0.3565534
sg439
F0.8156564
ssg34
g440
sg36
g37
sg13
S'100.0'
p720
sg39
g442
sba(iDataStore
Experiment
p721
(dp722
g22
(dp723
g430
F0.0259651
sg431
F0.4733397
sg432
F0.1471183
sg433
F0.4758323
sg434
F0.1696391
sg435
F0.2070564
sg436
F0.7059362
sg437
F0.3558222
sg438
F0.2819844
sg439
F0.7042378
ssg34
g440
sg36
g37
sg13
S'150.0'
p724
sg39
g442
sba(iDataStore
Experiment
p725
(dp726
g22
(dp727
g430
F0.0067659
sg431
F0.5552323
sg432
F0.1409376
sg433
F0.3854643
sg434
F0.2447503
sg435
F0.2695352
sg436
F0.779146
sg437
F0.4058957
sg438
F0.1862479
sg439
F0.6916045
ssg34
g440
sg36
g37
sg13
S'200.0'
p728
sg39
g442
sba(iDataStore
Experiment
p729
(dp730
g22
(dp731
g430
F0.0094517
sg431
F0.427473
sg432
F0.0985869
sg433
F0.449231
sg434
F0.1712229
sg435
F0.3182197
sg436
F0.7512179
sg437
F0.3565842
sg438
F0.2538905
sg439
F0.7226358
ssg34
g440
sg36
g37
sg13
S'250.0'
p732
sg39
g442
sba(iDataStore
Experiment
p733
(dp734
g22
(dp735
g430
F0.0019713
sg431
F0.5281481
sg432
F0.1500982
sg433
F0.3920308
sg434
F0.2081826
sg435
F0.2300156
sg436
F0.6662777
sg437
F0.2789396
sg438
F0.2450673
sg439
F0.8015413
ssg34
g440
sg36
g37
sg13
S'300.0'
p736
sg39
g442
sba(iDataStore
Experiment
p737
(dp738
g22
(dp739
g430
F0.011426
sg431
F0.5760348
sg432
F0.1285197
sg433
F0.3937747
sg434
F0.2921507
sg435
F0.2564993
sg436
F0.6446435
sg437
F0.2805749
sg438
F0.1746718
sg439
F0.7041561
ssg34
g440
sg36
g37
sg13
S'350.0'
p740
sg39
g442
sba(iDataStore
Experiment
p741
(dp742
g22
(dp743
g430
F0.0138563
sg431
F0.5195734
sg432
F0.1167303
sg433
F0.5795062
sg434
F0.1989521
sg435
F0.2767497
sg436
F0.7309197
sg437
F0.3775839
sg438
F0.2548303
sg439
F0.7438145
ssg34
g440
sg36
g37
sg13
S'400.0'
p744
sg39
g442
sba(iDataStore
Experiment
p745
(dp746
g22
(dp747
g430
F0.0025197
sg431
F0.4616732
sg432
F0.1496491
sg433
F0.3893692
sg434
F0.2291561
sg435
F0.2384708
sg436
F0.7241511
sg437
F0.3453198
sg438
F0.1916132
sg439
F0.7157578
ssg34
g440
sg36
g37
sg13
S'450.0'
p748
sg39
g442
sba(iDataStore
Experiment
p749
(dp750
g22
(dp751
g430
F0.007007
sg431
F0.4998435
sg432
F0.1109189
sg433
F0.289556
sg434
F0.2398097
sg435
F0.2557487
sg436
F0.6861697
sg437
F0.3096857
sg438
F0.1959993
sg439
F0.6144597
ssg34
g440
sg36
g37
sg13
S'500.0'
p752
sg39
g442
sba(iDataStore
Experiment
p753
(dp754
g22
(dp755
g430
F0.5668736
sg431
F0.4044676
sg432
F0.1082641
sg433
F0.44754
sg434
F0.2068039
sg435
F0.1897509
sg436
F0.6640881
sg437
F0.6214781
sg438
F0.6426656
sg439
F0.5714713
ssg34
g440
sg36
g37
sg13
S'550.0'
p756
sg39
g442
sba(iDataStore
Experiment
p757
(dp758
g22
(dp759
g430
F0.597794
sg431
F0.4860355
sg432
F0.1010354
sg433
F0.5663255
sg434
F0.3196045
sg435
F0.1523764
sg436
F0.637497
sg437
F0.6409856
sg438
F0.7231546
sg439
F0.6966782
ssg34
g440
sg36
g37
sg13
S'600.0'
p760
sg39
g442
sba(iDataStore
Experiment
p761
(dp762
g22
(dp763
g430
F0.6950467
sg431
F0.4614339
sg432
F0.1013164
sg433
F0.6595041
sg434
F0.406865
sg435
F0.1338911
sg436
F0.7156959
sg437
F0.6558541
sg438
F0.7188045
sg439
F0.7758014
ssg34
g440
sg36
g37
sg13
S'650.0'
p764
sg39
g442
sba(iDataStore
Experiment
p765
(dp766
g22
(dp767
g430
F0.5087046
sg431
F0.3561251
sg432
F0.1462886
sg433
F0.6690486
sg434
F0.4325222
sg435
F0.1458993
sg436
F0.6367377
sg437
F0.7491581
sg438
F0.6382091
sg439
F0.7329435
ssg34
g440
sg36
g37
sg13
S'700.0'
p768
sg39
g442
sba(iDataStore
Experiment
p769
(dp770
g22
(dp771
g430
F0.4667717
sg431
F0.3473546
sg432
F0.1460243
sg433
F0.5726726
sg434
F0.4342745
sg435
F0.1471605
sg436
F0.6861329
sg437
F0.7790399
sg438
F0.6700589
sg439
F0.7393787
ssg34
g440
sg36
g37
sg13
S'750.0'
p772
sg39
g442
sba(iDataStore
Experiment
p773
(dp774
g22
(dp775
g430
F0.5446558
sg431
F0.2765572
sg432
F0.1294852
sg433
F0.743286
sg434
F0.438485
sg435
F0.1238498
sg436
F0.7440202
sg437
F0.6396986
sg438
F0.7585209
sg439
F0.668421
ssg34
g440
sg36
g37
sg13
S'800.0'
p776
sg39
g442
sba(iDataStore
Experiment
p777
(dp778
g22
(dp779
g430
F0.4650374
sg431
F0.344726
sg432
F0.0999712
sg433
F0.5678651
sg434
F0.4268514
sg435
F0.0662469
sg436
F0.8967149
sg437
F0.6389196
sg438
F0.7023964
sg439
F0.6975826
ssg34
g440
sg36
g37
sg13
S'850.0'
p780
sg39
g442
sba(iDataStore
Experiment
p781
(dp782
g22
(dp783
g430
F0.4798852
sg431
F0.3897331
sg432
F0.1245277
sg433
F0.688654
sg434
F0.4127351
sg435
F0.0664624
sg436
F0.756436
sg437
F0.7970938
sg438
F0.6957703
sg439
F0.6599207
ssg34
g440
sg36
g37
sg13
S'900.0'
p784
sg39
g442
sba(iDataStore
Experiment
p785
(dp786
g22
(dp787
g430
F0.4785983
sg431
F0.2650917
sg432
F0.0947804
sg433
F0.5188151
sg434
F0.3728141
sg435
F0.0715481
sg436
F0.679297
sg437
F0.5806831
sg438
F0.7806962
sg439
F0.791336
ssg34
g440
sg36
g37
sg13
S'950.0'
p788
sg39
g442
sba(iDataStore
Experiment
p789
(dp790
g22
(dp791
g430
F0.3951515
sg431
F0.3540091
sg432
F0.1239435
sg433
F0.8028182
sg434
F0.3585051
sg435
F0.0930319
sg436
F0.6020569
sg437
F0.7304382
sg438
F0.7849719
sg439
F0.6863379
ssg34
g440
sg36
g37
sg13
S'1000.0'
p792
sg39
g442
sbasg34
g440
sg77
Nsg78
(lp793
g436
ag435
ag434
ag433
ag432
ag431
ag430
ag438
ag437
ag439
asg80
(lp794
S'Timeseries-Rep3'
p795
asba(iDataStore
MicroarrayData
p796
(dp797
g18
(lp798
(iDataStore
Experiment
p799
(dp800
g22
(dp801
g430
F0.4516194
sg431
F0.3092021
sg432
F0.0850342
sg433
F0.6301302
sg434
F0.4215624
sg435
F0.0789012
sg436
F0.7147163
sg437
F0.8362663
sg438
F0.6951692
sg439
F0.6439763
ssg34
g440
sg36
g37
sg13
S'0.0'
p802
sg39
g442
sba(iDataStore
Experiment
p803
(dp804
g22
(dp805
g430
F0.2277307
sg431
F0.3514063
sg432
F0.0442124
sg433
F0.649465
sg434
F0.2933042
sg435
F0.1135145
sg436
F0.6338617
sg437
F0.3862019
sg438
F0.7833732
sg439
F0.6660204
ssg34
g440
sg36
g37
sg13
S'50.0'
p806
sg39
g442
sba(iDataStore
Experiment
p807
(dp808
g22
(dp809
g430
F0.1633944
sg431
F0.3053646
sg432
F0.026979
sg433
F0.5906159
sg434
F0.3235387
sg435
F0.0807247
sg436
F0.6247811
sg437
F0.1997879
sg438
F0.8113616
sg439
F0.6863509
ssg34
g440
sg36
g37
sg13
S'100.0'
p810
sg39
g442
sba(iDataStore
Experiment
p811
(dp812
g22
(dp813
g430
F0.1746293
sg431
F0.3056355
sg432
F0.0273254
sg433
F0.4836713
sg434
F0.3469269
sg435
F0.0561945
sg436
F0.719644
sg437
F0.1924133
sg438
F0.8313165
sg439
F0.717086
ssg34
g440
sg36
g37
sg13
S'150.0'
p814
sg39
g442
sba(iDataStore
Experiment
p815
(dp816
g22
(dp817
g430
F0.1830969
sg431
F0.3537859
sg432
F0.0469687
sg433
F0.6042179
sg434
F0.4130727
sg435
F0.0723323
sg436
F0.709418
sg437
F0.0529535
sg438
F0.6419759
sg439
F0.5236239
ssg34
g440
sg36
g37
sg13
S'200.0'
p818
sg39
g442
sba(iDataStore
Experiment
p819
(dp820
g22
(dp821
g430
F0.1575486
sg431
F0.3008098
sg432
F0.0250493
sg433
F0.3472931
sg434
F0.2922907
sg435
F0.0573258
sg436
F0.6711232
sg437
F0.1137219
sg438
F0.7444961
sg439
F0.2911146
ssg34
g440
sg36
g37
sg13
S'250.0'
p822
sg39
g442
sba(iDataStore
Experiment
p823
(dp824
g22
(dp825
g430
F0.2135964
sg431
F0.3098801
sg432
F0.0333171
sg433
F0.3764952
sg434
F0.2427562
sg435
F0.1384099
sg436
F0.5962738
sg437
F0.0377755
sg438
F0.8112381
sg439
F0.2117541
ssg34
g440
sg36
g37
sg13
S'300.0'
p826
sg39
g442
sba(iDataStore
Experiment
p827
(dp828
g22
(dp829
g430
F0.1974683
sg431
F0.3432863
sg432
F0.0494189
sg433
F0.4628633
sg434
F0.1998363
sg435
F0.119761
sg436
F0.6805381
sg437
F0.0897643
sg438
F0.7483208
sg439
F0.1264955
ssg34
g440
sg36
g37
sg13
S'350.0'
p830
sg39
g442
sba(iDataStore
Experiment
p831
(dp832
g22
(dp833
g430
F0.2231497
sg431
F0.2891713
sg432
F0.0284715
sg433
F0.4117866
sg434
F0.2400097
sg435
F0.1229227
sg436
F0.7371512
sg437
F0.0679836
sg438
F0.7271195
sg439
F0.0998985
ssg34
g440
sg36
g37
sg13
S'400.0'
p834
sg39
g442
sba(iDataStore
Experiment
p835
(dp836
g22
(dp837
g430
F0.1698966
sg431
F0.311225
sg432
F0.0321371
sg433
F0.3639826
sg434
F0.2428435
sg435
F0.089656
sg436
F0.6819273
sg437
F0.0699389
sg438
F0.7200156
sg439
F0.1374822
ssg34
g440
sg36
g37
sg13
S'450.0'
p838
sg39
g442
sba(iDataStore
Experiment
p839
(dp840
g22
(dp841
g430
F0.1877961
sg431
F0.3785478
sg432
F0.021169
sg433
F0.4690353
sg434
F0.2636132
sg435
F0.099547
sg436
F0.7104574
sg437
F0.0821805
sg438
F0.5456798
sg439
F0.100758
ssg34
g440
sg36
g37
sg13
S'500.0'
p842
sg39
g442
sba(iDataStore
Experiment
p843
(dp844
g22
(dp845
g430
F0.570452
sg431
F0.2640264
sg432
F0.0860904
sg433
F0.3653458
sg434
F0.1216754
sg435
F0.1356463
sg436
F0.7680006
sg437
F0.5045298
sg438
F0.6508609
sg439
F0.1422282
ssg34
g440
sg36
g37
sg13
S'550.0'
p846
sg39
g442
sba(iDataStore
Experiment
p847
(dp848
g22
(dp849
g430
F0.6164915
sg431
F0.3445713
sg432
F0.0941271
sg433
F0.3960368
sg434
F0.1284694
sg435
F0.0697471
sg436
F0.801327
sg437
F0.648607
sg438
F0.8255316
sg439
F0.5994218
ssg34
g440
sg36
g37
sg13
S'600.0'
p850
sg39
g442
sba(iDataStore
Experiment
p851
(dp852
g22
(dp853
g430
F0.56178
sg431
F0.3458663
sg432
F0.1353537
sg433
F0.5868999
sg434
F0.3661953
sg435
F0.1193078
sg436
F0.5906615
sg437
F0.7214906
sg438
F0.7139359
sg439
F0.8022524
ssg34
g440
sg36
g37
sg13
S'650.0'
p854
sg39
g442
sba(iDataStore
Experiment
p855
(dp856
g22
(dp857
g430
F0.6509316
sg431
F0.3166416
sg432
F0.0890263
sg433
F0.6718697
sg434
F0.3591009
sg435
F0.1188755
sg436
F0.7513218
sg437
F0.6535027
sg438
F0.6390672
sg439
F0.6646572
ssg34
g440
sg36
g37
sg13
S'700.0'
p858
sg39
g442
sba(iDataStore
Experiment
p859
(dp860
g22
(dp861
g430
F0.6655727
sg431
F0.3007214
sg432
F0.0909344
sg433
F0.774945
sg434
F0.48233
sg435
F0.0562414
sg436
F0.7609359
sg437
F0.7400781
sg438
F0.62152
sg439
F0.6733657
ssg34
g440
sg36
g37
sg13
S'750.0'
p862
sg39
g442
sba(iDataStore
Experiment
p863
(dp864
g22
(dp865
g430
F0.332873
sg431
F0.3250779
sg432
F0.0789572
sg433
F0.6708727
sg434
F0.3442142
sg435
F0.1250612
sg436
F0.7104486
sg437
F0.5766519
sg438
F0.5702048
sg439
F0.6451817
ssg34
g440
sg36
g37
sg13
S'800.0'
p866
sg39
g442
sba(iDataStore
Experiment
p867
(dp868
g22
(dp869
g430
F0.4102492
sg431
F0.4497987
sg432
F0.1246992
sg433
F0.8145937
sg434
F0.230909
sg435
F0.1409962
sg436
F0.6785809
sg437
F0.727876
sg438
F0.5818118
sg439
F0.6745839
ssg34
g440
sg36
g37
sg13
S'850.0'
p870
sg39
g442
sba(iDataStore
Experiment
p871
(dp872
g22
(dp873
g430
F0.5112388
sg431
F0.2465951
sg432
F0.1091451
sg433
F0.7641729
sg434
F0.2433752
sg435
F0.1388405
sg436
F0.5603117
sg437
F0.8139243
sg438
F0.6467664
sg439
F0.7195319
ssg34
g440
sg36
g37
sg13
S'900.0'
p874
sg39
g442
sba(iDataStore
Experiment
p875
(dp876
g22
(dp877
g430
F0.5826744
sg431
F0.2454982
sg432
F0.1401569
sg433
F0.6707907
sg434
F0.307848
sg435
F0.0941102
sg436
F0.609001
sg437
F0.7054992
sg438
F0.57984
sg439
F0.6785874
ssg34
g440
sg36
g37
sg13
S'950.0'
p878
sg39
g442
sba(iDataStore
Experiment
p879
(dp880
g22
(dp881
g430
F0.6863531
sg431
F0.3958538
sg432
F0.1560013
sg433
F0.7689856
sg434
F0.393153
sg435
F0.1153804
sg436
F0.6467795
sg437
F0.6372677
sg438
F0.7454198
sg439
F0.7405712
ssg34
g440
sg36
g37
sg13
S'1000.0'
p882
sg39
g442
sbasg34
g440
sg77
Nsg78
(lp883
g436
ag435
ag434
ag433
ag432
ag431
ag430
ag438
ag437
ag439
asg80
(lp884
g442
asbasS'tZero_storage'
p885
(iDataStore
MicroarrayData
p886
(dp887
g18
(lp888
g427
ag529
ag619
ag709
ag799
asg34
S'steadystate'
p889
sg77
Nsg78
g523
sg80
(lp890
S'TimeZeros.tsv'
p891
asbsS'alg_name'
p892
S'mcz'
p893
sg371
g372
sg315
S'/home/netinf/NetInfJacGithubOct1714/Network-Inference-Workspace/output//MCZ-BOOKFINAL-dream410-2014-10-17_15.16.56//MCZ//mcz_program/'
p894
sS'wt_storage'
p895
(iDataStore
MicroarrayData
p896
(dp897
g18
(lp898
(iDataStore
Experiment
p899
(dp900
g22
(dp901
S'G7'
p902
F0.496733
sS'G6'
p903
F0.3258775
sS'G5'
p904
F0.1464854
sS'G4'
p905
F0.6047832
sS'G3'
p906
F0.3287936
sS'G2'
p907
F0.1231706
sS'G1'
p908
F0.6046824
sS'G9'
p909
F0.6140849
sS'G8'
p910
F0.6496271
sS'G10'
p911
F0.7481792
ssg34
g368
sg36
g37
sg13
g38
sg39
g116
sbasg34
g368
sg77
Nsg78
(lp912
g908
ag907
ag906
ag905
ag904
ag903
ag902
ag910
ag909
ag911
asg80
(lp913
S'insilico_size10_1_wildtype.tsv'
p914
asbsS'zscores'
p915
(lp916
(g436
g432
F12.1892249232672
tp917
a(g437
g439
F-8.02904098286218
tp918
a(g438
g431
F4.71476527448618
tp919
a(g433
g430
F-4.11560537521685
tp920
a(g436
g430
F2.79908897942419
tp921
a(g433
g434
F2.63376792315505
tp922
a(g431
g435
F2.50529678951073
tp923
a(g436
g435
F2.28098001614935
tp924
a(g430
g433
F-2.12929400371296
tp925
a(g432
g436
F1.9932588788784
tp926
a(g437
g434
F-1.87326425886882
tp927
a(g433
g436
F1.61429446723738
tp928
a(g436
g433
F-1.58558230983403
tp929
a(g439
g433
F-1.57800902393012
tp930
a(g436
g434
F-1.52806524392996
tp931
a(g434
g433
F-1.52186922321545
tp932
a(g437
g430
F1.48186007334479
tp933
a(g430
g437
F1.46991718326261
tp934
a(g434
g431
F1.46126929016957
tp935
a(g438
g435
F1.43409958870626
tp936
a(g434
g438
F1.38859826939337
tp937
a(g437
g433
F-1.37068092580412
tp938
a(g432
g438
F-1.35508654648995
tp939
a(g431
g439
F1.28689951721195
tp940
a(g432
g439
F1.25091349733671
tp941
a(g433
g437
F-1.24586093843709
tp942
a(g435
g439
F1.23776916749639
tp943
a(g434
g430
F1.20607346032146
tp944
a(g438
g436
F1.09118958279216
tp945
a(g436
g431
F1.07327922626404
tp946
a(g431
g438
F-1.07302577271997
tp947
a(g438
g437
F1.07128329532409
tp948
a(g436
g438
F1.04024536664184
tp949
a(g439
g436
F1.0262432264499
tp950
a(g431
g436
F-1.01676083057024
tp951
a(g437
g436
F1.01308525139067
tp952
a(g437
g438
F0.958017495791206
tp953
a(g430
g434
F-0.929391773400526
tp954
a(g436
g437
F-0.823183377972198
tp955
a(g431
g434
F0.799088981706634
tp956
a(g434
g432
F-0.785123417939668
tp957
a(g430
g438
F0.759490515774158
tp958
a(g431
g430
F-0.748209740828471
tp959
a(g439
g430
F0.738369992973658
tp960
a(g430
g432
F-0.691789488567248
tp961
a(g430
g439
F-0.683497183950152
tp962
a(g431
g437
F0.63421312204471
tp963
a(g435
g437
F0.603922581777548
tp964
a(g432
g437
F0.595052380533258
tp965
a(g433
g438
F-0.588342644711355
tp966
a(g439
g431
F0.570978817912999
tp967
a(g435
g431
F0.570531258547317
tp968
a(g431
g432
F-0.507093297003491
tp969
a(g435
g432
F0.50033022808834
tp970
a(g439
g437
F0.475154884302179
tp971
a(g433
g432
F0.462648483532259
tp972
a(g434
g437
F0.441229529338331
tp973
a(g432
g433
F-0.396399828259048
tp974
a(g432
g431
F0.393069721073298
tp975
a(g432
g434
F0.382621199244474
tp976
a(g436
g439
F0.348216869741082
tp977
a(g439
g434
F0.328839577200392
tp978
a(g435
g436
F0.325734683168747
tp979
a(g434
g439
F-0.311299236448084
tp980
a(g430
g435
F-0.303738457415175
tp981
a(g433
g439
F0.303401361118309
tp982
a(g437
g432
F0.227467234937073
tp983
a(g433
g431
F-0.223229439759821
tp984
a(g438
g434
F-0.2167914807569
tp985
a(g438
g433
F0.212675157753685
tp986
a(g435
g434
F-0.195792499863061
tp987
a(g439
g435
F0.18594358860265
tp988
a(g434
g435
F0.178214301947941
tp989
a(g435
g430
F-0.170504095720541
tp990
a(g435
g433
F-0.166184823417604
tp991
a(g430
g436
F-0.162692711296177
tp992
a(g432
g435
F0.15413692128319
tp993
a(g433
g435
F-0.110128154717222
tp994
a(g439
g438
F-0.084723054209282
tp995
a(g438
g430
F0.0753551647466159
tp996
a(g435
g438
F-0.071798480347815
tp997
a(g438
g432
F-0.0650551765315698
tp998
a(g430
g431
F0.0428899256052181
tp999
a(g432
g430
F0.0299417564029388
tp1000
a(g437
g435
F0.026723884814025
tp1001
a(g434
g436
F0.025882682879531
tp1002
a(g439
g432
F0.0191289289170194
tp1003
a(g437
g431
F-0.0149302121940855
tp1004
a(g438
g439
F0.00562216439546907
tp1005
a(g431
g433
F-0.00514361780530669
tp1006
a(g436
g436
F0.0
tp1007
a(g435
g435
F0.0
tp1008
a(g434
g434
F0.0
tp1009
a(g433
g433
F0.0
tp1010
a(g432
g432
F0.0
tp1011
a(g431
g431
F0.0
tp1012
a(g430
g430
F0.0
tp1013
a(g438
g438
F0.0
tp1014
a(g437
g437
F0.0
tp1015
a(g439
g439
F0.0
tp1016
asS'other_storage'
p1017
(iDataStore
MicroarrayData
p1018
(dp1019
g18
(lp1020
(iDataStore
Experiment
p1021
(dp1022
g22
(dp1023
S'G7'
p1024
F0.6244579
sS'G6'
p1025
F0.3160643
sS'G5'
p1026
F0.3456091
sS'G4'
p1027
F0.6396958
sS'G3'
p1028
F0.3478002
sS'G2'
p1029
F0.0722337
sS'G1'
p1030
F0.389841
sS'G9'
p1031
F0.6661835
sS'G8'
p1032
F0.6492305
sS'G10'
p1033
F0.6923661
ssg34
S'knockdown'
p1034
sg36
g37
sg13
g38
sg39
g274
sba(iDataStore
Experiment
p1035
(dp1036
g22
(dp1037
g1024
F0.463641
sg1025
F0.3326363
sg1026
F0.148526
sg1027
F0.6607454
sg1028
F0.4121334
sg1029
F0.0357751
sg1030
F0.8357763
sg1031
F0.776379
sg1032
F0.8164285
sg1033
F0.5841345
ssg34
g1034
sg36
g37
sg13
g44
sg39
g274
sba(iDataStore
Experiment
p1038
(dp1039
g22
(dp1040
g1024
F0.5354631
sg1025
F0.2568047
sg1026
F0.1658057
sg1027
F0.7067496
sg1028
F0.2647904
sg1029
F0.0840938
sg1030
F0.6812331
sg1031
F0.684542
sg1032
F0.7055173
sg1033
F0.7791802
ssg34
g1034
sg36
g37
sg13
g48
sg39
g274
sba(iDataStore
Experiment
p1041
(dp1042
g22
(dp1043
g1024
F0.4754313
sg1025
F0.2900926
sg1026
F0.0742647
sg1027
F0.4466983
sg1028
F0.4119282
sg1029
F0.0607266
sg1030
F0.6802011
sg1031
F0.6775331
sg1032
F0.5998749
sg1033
F0.7786995
ssg34
g1034
sg36
g37
sg13
g52
sg39
g274
sba(iDataStore
Experiment
p1044
(dp1045
g22
(dp1046
g1024
F0.4780143
sg1025
F0.2532243
sg1026
F0.1224172
sg1027
F0.7210109
sg1028
F0.4103195
sg1029
F0.0750232
sg1030
F0.6363
sg1031
F0.6573481
sg1032
F0.6185092
sg1033
F0.6908296
ssg34
g1034
sg36
g37
sg13
g56
sg39
g274
sba(iDataStore
Experiment
p1047
(dp1048
g22
(dp1049
g1024
F0.5961106
sg1025
F0.1630253
sg1026
F0.1544049
sg1027
F0.6523474
sg1028
F0.3249278
sg1029
F0.1150666
sg1030
F0.6742165
sg1031
F0.7959911
sg1032
F0.7112882
sg1033
F0.6985576
ssg34
g1034
sg36
g37
sg13
g60
sg39
g274
sba(iDataStore
Experiment
p1050
(dp1051
g22
(dp1052
g1024
F0.3586357
sg1025
F0.2745215
sg1026
F0.1092644
sg1027
F0.5218381
sg1028
F0.2482135
sg1029
F0.1163645
sg1030
F0.7705951
sg1031
F0.6551592
sg1032
F0.6390914
sg1033
F0.6830314
ssg34
g1034
sg36
g37
sg13
g64
sg39
g274
sba(iDataStore
Experiment
p1053
(dp1054
g22
(dp1055
g1024
F0.4134679
sg1025
F0.5216254
sg1026
F0.1001786
sg1027
F0.6765084
sg1028
F0.5012037
sg1029
F0.1783586
sg1030
F0.8163943
sg1031
F0.6653574
sg1032
F0.3217026
sg1033
F0.6734377
ssg34
g1034
sg36
g37
sg13
g68
sg39
g274
sba(iDataStore
Experiment
p1056
(dp1057
g22
(dp1058
g1024
F0.6016538
sg1025
F0.2276353
sg1026
F0.1153215
sg1027
F0.7156928
sg1028
F0.4137001
sg1029
F0.1089892
sg1030
F0.7477993
sg1031
F0.415616
sg1032
F0.7493981
sg1033
F0.6208126
ssg34
g1034
sg36
g37
sg13
g72
sg39
g274
sba(iDataStore
Experiment
p1059
(dp1060
g22
(dp1061
g1024
F0.6386655
sg1025
F0.3004501
sg1026
F0.0827235
sg1027
F0.7476172
sg1028
F0.4537613
sg1029
F0.1386172
sg1030
F0.6891057
sg1031
F0.8119234
sg1032
F0.6910927
sg1033
F0.2645752
ssg34
g1034
sg36
g37
sg13
g76
sg39
g274
sbasg34
g1034
sg77
Nsg78
(lp1062
g1030
ag1029
ag1028
ag1027
ag1026
ag1025
ag1024
ag1032
ag1031
ag1033
asg80
(lp1063
S'insilico_size10_1_knockdowns.tsv'
p1064
asbsg78
g523
sS'cwd'
p1065
g894
sS'network'
p1066
(iNetwork
Network
p1067
(dp1068
S'binary'
p1069
I00
sS'num_correct_100'
p1070
I15
sg1066
(dp1071
g430
(dp1072
g430
F0.0
sg431
F0.0428899256052181
sg432
F-0.691789488567248
sg433
F-2.12929400371296
sg434
F-0.929391773400526
sg435
F-0.303738457415175
sg436
F-0.162692711296177
sg437
F1.46991718326261
sg438
F0.759490515774158
sg439
F-0.683497183950152
ssg431
(dp1073
g430
F-0.748209740828471
sg431
F0.0
sg432
F-0.507093297003491
sg433
F-0.00514361780530669
sg434
F0.799088981706634
sg435
F2.50529678951073
sg436
F-1.01676083057024
sg437
F0.63421312204471
sg438
F-1.07302577271997
sg439
F1.28689951721195
ssg432
(dp1074
g430
F0.0299417564029388
sg431
F0.393069721073298
sg432
F0.0
sg433
F-0.396399828259048
sg434
F0.382621199244474
sg435
F0.15413692128319
sg436
F1.9932588788784
sg437
F0.595052380533258
sg438
F-1.35508654648995
sg439
F1.25091349733671
ssg433
(dp1075
g430
F-4.11560537521685
sg431
F-0.223229439759821
sg432
F0.462648483532259
sg433
F0.0
sg434
F2.63376792315505
sg435
F-0.110128154717222
sg436
F1.61429446723738
sg437
F-1.24586093843709
sg438
F-0.588342644711355
sg439
F0.303401361118309
ssg434
(dp1076
g430
F1.20607346032146
sg431
F1.46126929016957
sg432
F-0.785123417939668
sg433
F-1.52186922321545
sg434
F0.0
sg435
F0.178214301947941
sg436
F0.025882682879531
sg437
F0.441229529338331
sg438
F1.38859826939337
sg439
F-0.311299236448084
ssg435
(dp1077
g430
F-0.170504095720541
sg431
F0.570531258547317
sg432
F0.50033022808834
sg433
F-0.166184823417604
sg434
F-0.195792499863061
sg435
F0.0
sg436
F0.325734683168747
sg437
F0.603922581777548
sg438
F-0.071798480347815
sg439
F1.23776916749639
ssg436
(dp1078
g430
F2.79908897942419
sg431
F1.07327922626404
sg432
F12.1892249232672
sg433
F-1.58558230983403
sg434
F-1.52806524392996
sg435
F2.28098001614935
sg436
F0.0
sg437
F-0.823183377972198
sg438
F1.04024536664184
sg439
F0.348216869741082
ssg437
(dp1079
g430
F1.48186007334479
sg431
F-0.0149302121940855
sg432
F0.227467234937073
sg433
F-1.37068092580412
sg434
F-1.87326425886882
sg435
F0.026723884814025
sg436
F1.01308525139067
sg437
F0.0
sg438
F0.958017495791206
sg439
F-8.02904098286218
ssg438
(dp1080
g430
F0.0753551647466159
sg431
F4.71476527448618
sg432
F-0.0650551765315698
sg433
F0.212675157753685
sg434
F-0.2167914807569
sg435
F1.43409958870626
sg436
F1.09118958279216
sg437
F1.07128329532409
sg438
F0.0
sg439
F0.00562216439546907
ssg439
(dp1081
g430
F0.738369992973658
sg431
F0.570978817912999
sg432
F0.0191289289170194
sg433
F-1.57800902393012
sg434
F0.328839577200392
sg435
F0.18594358860265
sg436
F1.0262432264499
sg437
F0.475154884302179
sg438
F-0.084723054209282
sg439
F0.0
sssS'cutoff'
p1082
I0
sS'signed'
p1083
I00
sS'original_network'
p1084
(lp1085
sS'thresh'
p1086
I0
sS'per_correct_100'
p1087
F1.0
sS'num_correct_10p'
p1088
I5
sS'per_correct_10p'
p1089
F0.3333333333333333
sg78
g523
sbsg360
g361
sbsS'id'
p1090
I0
sg83
(dp1091
g85
(dp1092
g89
g90
sg87
g88
ssg91
(dp1093
g93
g94
ssg95
(dp1094
g97
g98
ssg99
(dp1095
g101
g102
ssg418
(dp1096
g420
g421
ssg103
(dp1097
g105
g106
ssg107
(dp1098
g109
g110
sg111
g112
sg113
g114
sg115
g116
sg117
I50
sg118
g119
sg120
g121
sg122
g123
sg271
g272
sg126
g127
sg128
g129
sg255
g256
sg132
g133
sg134
g135
sg136
I50
sg137
g138
sg139
g140
sg230
g231
sg276
g277
sg321
g322
sg147
g148
sg149
g150
sg151
g152
sg153
g154
sg155
I50
sg156
g157
sg158
g159
sg160
g161
sg162
g163
sg164
g165
sg166
g167
sg168
g169
sg246
g247
sg170
g171
sg174
I4
sg175
g176
sg177
g178
sg179
I50
sg180
I50
sg181
g182
sg183
g184
sg185
g186
sg187
g188
sg189
g190
sg191
g192
sg193
g194
sg195
I50
sg196
g197
sg300
g301
sg200
g201
sg202
g203
sg204
I30
sg205
g206
sg207
g208
sg209
g210
sg211
g212
sg213
g214
sg215
g216
sg217
g218
sg219
g220
sg221
g40
sg222
g223
sg224
g225
sg228
g229
sg141
g142
sg232
I50
sg233
g234
sg235
g236
sg237
g238
sg239
g240
sg241
g242
sg243
I50
sg244
g245
sg198
g199
sg248
g249
sg250
g251
sg252
I50
sg298
g299
sg253
g254
sg130
g131
sg259
I50
sg257
g258
sg260
g261
sg262
g263
sg264
g265
sg266
g267
sg143
g144
sg268
I30
sg269
g270
sg124
g125
sg273
g274
sg275
I50
sg172
g173
sg278
g279
sg280
g281
sg282
g283
sg284
g285
sg286
g287
sg288
g289
sg290
g291
sg292
g293
sg294
g295
sg296
g297
sg226
g227
sg302
g303
sg304
g305
sg306
I50
sg307
g308
sg309
g310
sg311
g312
sg313
g314
sg315
g316
sg317
g318
sg319
g320
sg145
g146
sg323
g324
sg325
g326
sg327
g328
sg329
g330
sg331
I50
sg332
g333
sg334
g335
sg348
I50
sg338
g339
sg340
g341
sg342
I50
sg343
g344
sg345
g346
sg347
I50
sg336
g337
sg349
g350
ssg351
(dp1099
g11
g12
sg13
g14
sg368
g369
sg35
g353
sg354
g355
sg356
g357
sg358
g359
sg360
g361
sg362
g363
sg364
g365
sg366
g367
sg370
I15
sg371
g372
ssg381
(dp1100
g383
g384
ssg385
(dp1101
g387
I10
sg388
g389
ssg390
(dp1102
g392
g393
sg394
I10
sg395
I2
sg407
I1
sg399
g400
sg397
(lp1103
I1
aI3
asg402
(lp1104
F0.0001
aF0.1
asg401
I3
sg404
(lp1105
F0.001
aF0.2
asg406
I1
sg408
g409
sg396
I1
sg410
g411
sg412
g413
ssg414
(dp1106
g416
g417
ssg373
(dp1107
g375
I10
sg376
g377
sg378
I5
sg379
g380
sssba(lp1108
(g14
(dp1109
S'tn'
p1110
I10
sS'fp'
p1111
I82
sS'fn'
p1112
I0
sS'specificity'
p1113
F0.10869565217391304
sS'recall'
p1114
F1.0
sS'sensitivity'
p1115
F1.0
sS'precision'
p1116
F0.08888888888888889
sS'tp'
p1117
I8
sS'accuracy'
p1118
F0.18
stp1119
a(lp1120
(g14
cnumpy.core.multiarray
scalar
p1121
(cnumpy
dtype
p1122
(S'f8'
p1123
I0
I1
tp1124
Rp1125
(I3
S'<'
p1126
NNNI-1
I-1
I0
tp1127
bS'000000\xe0?'
p1128
tp1129
Rp1130
tp1131
a(lp1132
(g14
g1121
(g1125
S'+\xcb\xbf\xa9q>\xda?'
p1133
tp1134
Rp1135
tp1136
atp1137
.